
build/final.elf:     file format elf32-littlearm


Disassembly of section .text:

08000000 <isr_vectors>:
 8000000:	20028000 	andcs	r8, r2, r0
 8000004:	0800084b 	stmdaeq	r0, {r0, r1, r3, r6, fp}
 8000008:	08000845 	stmdaeq	r0, {r0, r2, r6, fp}
 800000c:	08000845 	stmdaeq	r0, {r0, r2, r6, fp}
 8000010:	08000845 	stmdaeq	r0, {r0, r2, r6, fp}
 8000014:	08000845 	stmdaeq	r0, {r0, r2, r6, fp}
 8000018:	08000845 	stmdaeq	r0, {r0, r2, r6, fp}
 800001c:	00000000 	andeq	r0, r0, r0
 8000020:	08000845 	stmdaeq	r0, {r0, r2, r6, fp}
 8000024:	08000845 	stmdaeq	r0, {r0, r2, r6, fp}
 8000028:	00000000 	andeq	r0, r0, r0
 800002c:	08000845 	stmdaeq	r0, {r0, r2, r6, fp}
 8000030:	080002d9 	stmdaeq	r0, {r0, r3, r4, r6, r7, r9}
 8000034:	08000845 	stmdaeq	r0, {r0, r2, r6, fp}
 8000038:	08000845 	stmdaeq	r0, {r0, r2, r6, fp}
 800003c:	08000845 	stmdaeq	r0, {r0, r2, r6, fp}
 8000040:	08000845 	stmdaeq	r0, {r0, r2, r6, fp}
 8000044:	08000845 	stmdaeq	r0, {r0, r2, r6, fp}
 8000048:	08000845 	stmdaeq	r0, {r0, r2, r6, fp}
 800004c:	08000845 	stmdaeq	r0, {r0, r2, r6, fp}
 8000050:	08000845 	stmdaeq	r0, {r0, r2, r6, fp}
 8000054:	08000845 	stmdaeq	r0, {r0, r2, r6, fp}
 8000058:	08000845 	stmdaeq	r0, {r0, r2, r6, fp}
 800005c:	08000845 	stmdaeq	r0, {r0, r2, r6, fp}
 8000060:	08000845 	stmdaeq	r0, {r0, r2, r6, fp}
 8000064:	08000845 	stmdaeq	r0, {r0, r2, r6, fp}
 8000068:	08000845 	stmdaeq	r0, {r0, r2, r6, fp}
 800006c:	08000845 	stmdaeq	r0, {r0, r2, r6, fp}
 8000070:	08000845 	stmdaeq	r0, {r0, r2, r6, fp}
 8000074:	08000845 	stmdaeq	r0, {r0, r2, r6, fp}
 8000078:	08000845 	stmdaeq	r0, {r0, r2, r6, fp}
 800007c:	08000845 	stmdaeq	r0, {r0, r2, r6, fp}
 8000080:	08000845 	stmdaeq	r0, {r0, r2, r6, fp}
 8000084:	08000845 	stmdaeq	r0, {r0, r2, r6, fp}
 8000088:	08000845 	stmdaeq	r0, {r0, r2, r6, fp}
 800008c:	08000845 	stmdaeq	r0, {r0, r2, r6, fp}
 8000090:	08000845 	stmdaeq	r0, {r0, r2, r6, fp}
 8000094:	08000845 	stmdaeq	r0, {r0, r2, r6, fp}
 8000098:	08000845 	stmdaeq	r0, {r0, r2, r6, fp}
 800009c:	08000845 	stmdaeq	r0, {r0, r2, r6, fp}
 80000a0:	08000845 	stmdaeq	r0, {r0, r2, r6, fp}
 80000a4:	08000845 	stmdaeq	r0, {r0, r2, r6, fp}
 80000a8:	08000845 	stmdaeq	r0, {r0, r2, r6, fp}
 80000ac:	00000000 	andeq	r0, r0, r0
 80000b0:	08000845 	stmdaeq	r0, {r0, r2, r6, fp}
 80000b4:	08000845 	stmdaeq	r0, {r0, r2, r6, fp}
 80000b8:	08000845 	stmdaeq	r0, {r0, r2, r6, fp}
 80000bc:	08000845 	stmdaeq	r0, {r0, r2, r6, fp}
 80000c0:	08000845 	stmdaeq	r0, {r0, r2, r6, fp}
 80000c4:	08000845 	stmdaeq	r0, {r0, r2, r6, fp}
 80000c8:	08000845 	stmdaeq	r0, {r0, r2, r6, fp}
 80000cc:	08000845 	stmdaeq	r0, {r0, r2, r6, fp}
 80000d0:	08000845 	stmdaeq	r0, {r0, r2, r6, fp}
 80000d4:	08000845 	stmdaeq	r0, {r0, r2, r6, fp}
 80000d8:	08000845 	stmdaeq	r0, {r0, r2, r6, fp}
	...
 80000f8:	08000845 	stmdaeq	r0, {r0, r2, r6, fp}
 80000fc:	00000000 	andeq	r0, r0, r0
 8000100:	08000845 	stmdaeq	r0, {r0, r2, r6, fp}
 8000104:	08000845 	stmdaeq	r0, {r0, r2, r6, fp}
 8000108:	00000000 	andeq	r0, r0, r0
 800010c:	08000845 	stmdaeq	r0, {r0, r2, r6, fp}
 8000110:	08000845 	stmdaeq	r0, {r0, r2, r6, fp}
 8000114:	08000845 	stmdaeq	r0, {r0, r2, r6, fp}
 8000118:	08000845 	stmdaeq	r0, {r0, r2, r6, fp}
 800011c:	08000845 	stmdaeq	r0, {r0, r2, r6, fp}
 8000120:	08000845 	stmdaeq	r0, {r0, r2, r6, fp}
 8000124:	08000845 	stmdaeq	r0, {r0, r2, r6, fp}
 8000128:	08000845 	stmdaeq	r0, {r0, r2, r6, fp}
 800012c:	08000845 	stmdaeq	r0, {r0, r2, r6, fp}
 8000130:	00000000 	andeq	r0, r0, r0
 8000134:	08000845 	stmdaeq	r0, {r0, r2, r6, fp}
 8000138:	08000845 	stmdaeq	r0, {r0, r2, r6, fp}
 800013c:	08000845 	stmdaeq	r0, {r0, r2, r6, fp}
 8000140:	08000845 	stmdaeq	r0, {r0, r2, r6, fp}
 8000144:	08000845 	stmdaeq	r0, {r0, r2, r6, fp}
 8000148:	08000845 	stmdaeq	r0, {r0, r2, r6, fp}
 800014c:	08000845 	stmdaeq	r0, {r0, r2, r6, fp}
 8000150:	08000845 	stmdaeq	r0, {r0, r2, r6, fp}
 8000154:	08000845 	stmdaeq	r0, {r0, r2, r6, fp}
 8000158:	08000845 	stmdaeq	r0, {r0, r2, r6, fp}
 800015c:	08000845 	stmdaeq	r0, {r0, r2, r6, fp}
 8000160:	00000000 	andeq	r0, r0, r0
 8000164:	08000845 	stmdaeq	r0, {r0, r2, r6, fp}
 8000168:	08000845 	stmdaeq	r0, {r0, r2, r6, fp}
 800016c:	08000845 	stmdaeq	r0, {r0, r2, r6, fp}
 8000170:	08000845 	stmdaeq	r0, {r0, r2, r6, fp}
 8000174:	08000845 	stmdaeq	r0, {r0, r2, r6, fp}
 8000178:	08000845 	stmdaeq	r0, {r0, r2, r6, fp}
 800017c:	08000845 	stmdaeq	r0, {r0, r2, r6, fp}
 8000180:	08000845 	stmdaeq	r0, {r0, r2, r6, fp}
 8000184:	08000845 	stmdaeq	r0, {r0, r2, r6, fp}

08000188 <InitalSetup>:
 8000188:	b580      	push	{r7, lr}
 800018a:	af00      	add	r7, sp, #0
 800018c:	4b4d      	ldr	r3, [pc, #308]	; (80002c4 <InitalSetup+0x13c>)
 800018e:	2200      	movs	r2, #0
 8000190:	601a      	str	r2, [r3, #0]
 8000192:	4b4d      	ldr	r3, [pc, #308]	; (80002c8 <InitalSetup+0x140>)
 8000194:	2200      	movs	r2, #0
 8000196:	601a      	str	r2, [r3, #0]
 8000198:	2001      	movs	r0, #1
 800019a:	f000 f9cf 	bl	800053c <ToggleHSE>
 800019e:	2001      	movs	r0, #1
 80001a0:	f000 faa4 	bl	80006ec <TogglePowerInterfaceClock>
 80001a4:	2002      	movs	r0, #2
 80001a6:	f000 f95f 	bl	8000468 <SetVoltageRegulatorScale>
 80001aa:	2001      	movs	r0, #1
 80001ac:	f000 f8c2 	bl	8000334 <ToggleDataCache>
 80001b0:	2001      	movs	r0, #1
 80001b2:	f000 f8d1 	bl	8000358 <ToggleInstructionCache>
 80001b6:	2001      	movs	r0, #1
 80001b8:	f000 f8e0 	bl	800037c <TogglePrefetchBuffer>
 80001bc:	2004      	movs	r0, #4
 80001be:	f000 f8ef 	bl	80003a0 <SetFlashLatency>
 80001c2:	2000      	movs	r0, #0
 80001c4:	f000 f9f2 	bl	80005ac <SetAHBPrescaler>
 80001c8:	2000      	movs	r0, #0
 80001ca:	f000 fa03 	bl	80005d4 <SetAPB1Prescaler>
 80001ce:	2000      	movs	r0, #0
 80001d0:	f000 fa14 	bl	80005fc <SetAPB2Prescaler>
 80001d4:	2003      	movs	r0, #3
 80001d6:	f000 fa39 	bl	800064c <SetPLLSource>
 80001da:	2000      	movs	r0, #0
 80001dc:	f000 fa4a 	bl	8000674 <SetPLLM>
 80001e0:	2014      	movs	r0, #20
 80001e2:	f000 fa5b 	bl	800069c <SetPLLN>
 80001e6:	2000      	movs	r0, #0
 80001e8:	f000 fa6c 	bl	80006c4 <SetPLLR>
 80001ec:	2001      	movs	r0, #1
 80001ee:	f000 fa19 	bl	8000624 <TogglePLLOutput>
 80001f2:	2001      	movs	r0, #1
 80001f4:	f000 f9be 	bl	8000574 <TogglePLL>
 80001f8:	2003      	movs	r0, #3
 80001fa:	f000 f949 	bl	8000490 <SetSystemClockSource>
 80001fe:	2101      	movs	r1, #1
 8000200:	2000      	movs	r0, #0
 8000202:	f000 fa87 	bl	8000714 <ToggleGpioClock>
 8000206:	2101      	movs	r1, #1
 8000208:	2001      	movs	r0, #1
 800020a:	f000 fa83 	bl	8000714 <ToggleGpioClock>
 800020e:	2101      	movs	r1, #1
 8000210:	2002      	movs	r0, #2
 8000212:	f000 fa7f 	bl	8000714 <ToggleGpioClock>
 8000216:	2101      	movs	r1, #1
 8000218:	2003      	movs	r0, #3
 800021a:	f000 fa7b 	bl	8000714 <ToggleGpioClock>
 800021e:	2101      	movs	r1, #1
 8000220:	2004      	movs	r0, #4
 8000222:	f000 fa77 	bl	8000714 <ToggleGpioClock>
 8000226:	2101      	movs	r1, #1
 8000228:	2007      	movs	r0, #7
 800022a:	f000 fa73 	bl	8000714 <ToggleGpioClock>
 800022e:	4b27      	ldr	r3, [pc, #156]	; (80002cc <InitalSetup+0x144>)
 8000230:	681b      	ldr	r3, [r3, #0]
 8000232:	4618      	mov	r0, r3
 8000234:	2310      	movs	r3, #16
 8000236:	2202      	movs	r2, #2
 8000238:	2102      	movs	r1, #2
 800023a:	f000 fa81 	bl	8000740 <WriteIntoRegister>
 800023e:	4b23      	ldr	r3, [pc, #140]	; (80002cc <InitalSetup+0x144>)
 8000240:	681b      	ldr	r3, [r3, #0]
 8000242:	2202      	movs	r2, #2
 8000244:	2108      	movs	r1, #8
 8000246:	4618      	mov	r0, r3
 8000248:	f000 f8be 	bl	80003c8 <SetPinMode>
 800024c:	4b1f      	ldr	r3, [pc, #124]	; (80002cc <InitalSetup+0x144>)
 800024e:	681b      	ldr	r3, [r3, #0]
 8000250:	2203      	movs	r2, #3
 8000252:	2108      	movs	r1, #8
 8000254:	4618      	mov	r0, r3
 8000256:	f000 f8ca 	bl	80003ee <SetPinSpeed>
 800025a:	4b1d      	ldr	r3, [pc, #116]	; (80002d0 <InitalSetup+0x148>)
 800025c:	681b      	ldr	r3, [r3, #0]
 800025e:	f103 0008 	add.w	r0, r3, #8
 8000262:	2312      	movs	r3, #18
 8000264:	2203      	movs	r2, #3
 8000266:	2100      	movs	r1, #0
 8000268:	f000 fa6a 	bl	8000740 <WriteIntoRegister>
 800026c:	4b18      	ldr	r3, [pc, #96]	; (80002d0 <InitalSetup+0x148>)
 800026e:	681b      	ldr	r3, [r3, #0]
 8000270:	f103 0008 	add.w	r0, r3, #8
 8000274:	2318      	movs	r3, #24
 8000276:	2204      	movs	r2, #4
 8000278:	2101      	movs	r1, #1
 800027a:	f000 fa61 	bl	8000740 <WriteIntoRegister>
 800027e:	4b15      	ldr	r3, [pc, #84]	; (80002d4 <InitalSetup+0x14c>)
 8000280:	681b      	ldr	r3, [r3, #0]
 8000282:	4618      	mov	r0, r3
 8000284:	2300      	movs	r3, #0
 8000286:	2201      	movs	r2, #1
 8000288:	2101      	movs	r1, #1
 800028a:	f000 fa59 	bl	8000740 <WriteIntoRegister>
 800028e:	4b11      	ldr	r3, [pc, #68]	; (80002d4 <InitalSetup+0x14c>)
 8000290:	681b      	ldr	r3, [r3, #0]
 8000292:	4618      	mov	r0, r3
 8000294:	2301      	movs	r3, #1
 8000296:	2201      	movs	r2, #1
 8000298:	2101      	movs	r1, #1
 800029a:	f000 fa51 	bl	8000740 <WriteIntoRegister>
 800029e:	4b0d      	ldr	r3, [pc, #52]	; (80002d4 <InitalSetup+0x14c>)
 80002a0:	681b      	ldr	r3, [r3, #0]
 80002a2:	4618      	mov	r0, r3
 80002a4:	2302      	movs	r3, #2
 80002a6:	2201      	movs	r2, #1
 80002a8:	2101      	movs	r1, #1
 80002aa:	f000 fa49 	bl	8000740 <WriteIntoRegister>
 80002ae:	4b09      	ldr	r3, [pc, #36]	; (80002d4 <InitalSetup+0x14c>)
 80002b0:	681b      	ldr	r3, [r3, #0]
 80002b2:	1d18      	adds	r0, r3, #4
 80002b4:	2300      	movs	r3, #0
 80002b6:	2218      	movs	r2, #24
 80002b8:	f240 113f 	movw	r1, #319	; 0x13f
 80002bc:	f000 fa40 	bl	8000740 <WriteIntoRegister>
 80002c0:	bf00      	nop
 80002c2:	bd80      	pop	{r7, pc}
 80002c4:	20000028 	andcs	r0, r0, r8, lsr #32
 80002c8:	2000002c 	andcs	r0, r0, ip, lsr #32
 80002cc:	20000004 	andcs	r0, r0, r4
 80002d0:	20000000 	andcs	r0, r0, r0
 80002d4:	20000024 	andcs	r0, r0, r4, lsr #32

080002d8 <SysTick_Handler>:
 80002d8:	b480      	push	{r7}
 80002da:	af00      	add	r7, sp, #0
 80002dc:	4b0d      	ldr	r3, [pc, #52]	; (8000314 <SysTick_Handler+0x3c>)
 80002de:	681b      	ldr	r3, [r3, #0]
 80002e0:	3304      	adds	r3, #4
 80002e2:	4a0c      	ldr	r2, [pc, #48]	; (8000314 <SysTick_Handler+0x3c>)
 80002e4:	6013      	str	r3, [r2, #0]
 80002e6:	4b0b      	ldr	r3, [pc, #44]	; (8000314 <SysTick_Handler+0x3c>)
 80002e8:	681a      	ldr	r2, [r3, #0]
 80002ea:	4b0b      	ldr	r3, [pc, #44]	; (8000318 <SysTick_Handler+0x40>)
 80002ec:	fba3 1302 	umull	r1, r3, r3, r2
 80002f0:	099b      	lsrs	r3, r3, #6
 80002f2:	f44f 717a 	mov.w	r1, #1000	; 0x3e8
 80002f6:	fb01 f303 	mul.w	r3, r1, r3
 80002fa:	1ad3      	subs	r3, r2, r3
 80002fc:	2b00      	cmp	r3, #0
 80002fe:	d104      	bne.n	800030a <SysTick_Handler+0x32>
 8000300:	4b06      	ldr	r3, [pc, #24]	; (800031c <SysTick_Handler+0x44>)
 8000302:	681b      	ldr	r3, [r3, #0]
 8000304:	3301      	adds	r3, #1
 8000306:	4a05      	ldr	r2, [pc, #20]	; (800031c <SysTick_Handler+0x44>)
 8000308:	6013      	str	r3, [r2, #0]
 800030a:	bf00      	nop
 800030c:	46bd      	mov	sp, r7
 800030e:	bc80      	pop	{r7}
 8000310:	4770      	bx	lr
 8000312:	bf00      	nop
 8000314:	2000002c 	andcs	r0, r0, ip, lsr #32
 8000318:	10624dd3 	ldrdne	r4, [r2], #-211	; 0xffffff2d	; <UNPREDICTABLE>
 800031c:	20000028 	andcs	r0, r0, r8, lsr #32

08000320 <main>:
 8000320:	b580      	push	{r7, lr}
 8000322:	af00      	add	r7, sp, #0
 8000324:	f7ff ff30 	bl	8000188 <InitalSetup>
 8000328:	f000 fa3a 	bl	80007a0 <setup>
 800032c:	f000 fa58 	bl	80007e0 <loop>
 8000330:	e7fc      	b.n	800032c <main+0xc>
 8000332:	bf00      	nop

08000334 <ToggleDataCache>:
 8000334:	b580      	push	{r7, lr}
 8000336:	b082      	sub	sp, #8
 8000338:	af00      	add	r7, sp, #0
 800033a:	6078      	str	r0, [r7, #4]
 800033c:	4b05      	ldr	r3, [pc, #20]	; (8000354 <ToggleDataCache+0x20>)
 800033e:	681b      	ldr	r3, [r3, #0]
 8000340:	4618      	mov	r0, r3
 8000342:	6879      	ldr	r1, [r7, #4]
 8000344:	230a      	movs	r3, #10
 8000346:	2201      	movs	r2, #1
 8000348:	f000 f9fa 	bl	8000740 <WriteIntoRegister>
 800034c:	bf00      	nop
 800034e:	3708      	adds	r7, #8
 8000350:	46bd      	mov	sp, r7
 8000352:	bd80      	pop	{r7, pc}
 8000354:	20000020 	andcs	r0, r0, r0, lsr #32

08000358 <ToggleInstructionCache>:
 8000358:	b580      	push	{r7, lr}
 800035a:	b082      	sub	sp, #8
 800035c:	af00      	add	r7, sp, #0
 800035e:	6078      	str	r0, [r7, #4]
 8000360:	4b05      	ldr	r3, [pc, #20]	; (8000378 <ToggleInstructionCache+0x20>)
 8000362:	681b      	ldr	r3, [r3, #0]
 8000364:	4618      	mov	r0, r3
 8000366:	6879      	ldr	r1, [r7, #4]
 8000368:	2309      	movs	r3, #9
 800036a:	2201      	movs	r2, #1
 800036c:	f000 f9e8 	bl	8000740 <WriteIntoRegister>
 8000370:	bf00      	nop
 8000372:	3708      	adds	r7, #8
 8000374:	46bd      	mov	sp, r7
 8000376:	bd80      	pop	{r7, pc}
 8000378:	20000020 	andcs	r0, r0, r0, lsr #32

0800037c <TogglePrefetchBuffer>:
 800037c:	b580      	push	{r7, lr}
 800037e:	b082      	sub	sp, #8
 8000380:	af00      	add	r7, sp, #0
 8000382:	6078      	str	r0, [r7, #4]
 8000384:	4b05      	ldr	r3, [pc, #20]	; (800039c <TogglePrefetchBuffer+0x20>)
 8000386:	681b      	ldr	r3, [r3, #0]
 8000388:	4618      	mov	r0, r3
 800038a:	6879      	ldr	r1, [r7, #4]
 800038c:	2308      	movs	r3, #8
 800038e:	2201      	movs	r2, #1
 8000390:	f000 f9d6 	bl	8000740 <WriteIntoRegister>
 8000394:	bf00      	nop
 8000396:	3708      	adds	r7, #8
 8000398:	46bd      	mov	sp, r7
 800039a:	bd80      	pop	{r7, pc}
 800039c:	20000020 	andcs	r0, r0, r0, lsr #32

080003a0 <SetFlashLatency>:
 80003a0:	b580      	push	{r7, lr}
 80003a2:	b082      	sub	sp, #8
 80003a4:	af00      	add	r7, sp, #0
 80003a6:	4603      	mov	r3, r0
 80003a8:	71fb      	strb	r3, [r7, #7]
 80003aa:	4b06      	ldr	r3, [pc, #24]	; (80003c4 <SetFlashLatency+0x24>)
 80003ac:	681b      	ldr	r3, [r3, #0]
 80003ae:	4618      	mov	r0, r3
 80003b0:	79f9      	ldrb	r1, [r7, #7]
 80003b2:	2300      	movs	r3, #0
 80003b4:	2203      	movs	r2, #3
 80003b6:	f000 f9c3 	bl	8000740 <WriteIntoRegister>
 80003ba:	bf00      	nop
 80003bc:	3708      	adds	r7, #8
 80003be:	46bd      	mov	sp, r7
 80003c0:	bd80      	pop	{r7, pc}
 80003c2:	bf00      	nop
 80003c4:	20000020 	andcs	r0, r0, r0, lsr #32

080003c8 <SetPinMode>:
 80003c8:	b580      	push	{r7, lr}
 80003ca:	b082      	sub	sp, #8
 80003cc:	af00      	add	r7, sp, #0
 80003ce:	6078      	str	r0, [r7, #4]
 80003d0:	460b      	mov	r3, r1
 80003d2:	70fb      	strb	r3, [r7, #3]
 80003d4:	4613      	mov	r3, r2
 80003d6:	70bb      	strb	r3, [r7, #2]
 80003d8:	6878      	ldr	r0, [r7, #4]
 80003da:	78b9      	ldrb	r1, [r7, #2]
 80003dc:	78fb      	ldrb	r3, [r7, #3]
 80003de:	005b      	lsls	r3, r3, #1
 80003e0:	2202      	movs	r2, #2
 80003e2:	f000 f9ad 	bl	8000740 <WriteIntoRegister>
 80003e6:	bf00      	nop
 80003e8:	3708      	adds	r7, #8
 80003ea:	46bd      	mov	sp, r7
 80003ec:	bd80      	pop	{r7, pc}

080003ee <SetPinSpeed>:
 80003ee:	b580      	push	{r7, lr}
 80003f0:	b082      	sub	sp, #8
 80003f2:	af00      	add	r7, sp, #0
 80003f4:	6078      	str	r0, [r7, #4]
 80003f6:	460b      	mov	r3, r1
 80003f8:	70fb      	strb	r3, [r7, #3]
 80003fa:	4613      	mov	r3, r2
 80003fc:	70bb      	strb	r3, [r7, #2]
 80003fe:	687b      	ldr	r3, [r7, #4]
 8000400:	f103 0008 	add.w	r0, r3, #8
 8000404:	78b9      	ldrb	r1, [r7, #2]
 8000406:	78fb      	ldrb	r3, [r7, #3]
 8000408:	005b      	lsls	r3, r3, #1
 800040a:	2202      	movs	r2, #2
 800040c:	f000 f998 	bl	8000740 <WriteIntoRegister>
 8000410:	bf00      	nop
 8000412:	3708      	adds	r7, #8
 8000414:	46bd      	mov	sp, r7
 8000416:	bd80      	pop	{r7, pc}

08000418 <SetPullUpPullDown>:
 8000418:	b580      	push	{r7, lr}
 800041a:	b082      	sub	sp, #8
 800041c:	af00      	add	r7, sp, #0
 800041e:	6078      	str	r0, [r7, #4]
 8000420:	460b      	mov	r3, r1
 8000422:	70fb      	strb	r3, [r7, #3]
 8000424:	4613      	mov	r3, r2
 8000426:	70bb      	strb	r3, [r7, #2]
 8000428:	687b      	ldr	r3, [r7, #4]
 800042a:	f103 000c 	add.w	r0, r3, #12
 800042e:	78b9      	ldrb	r1, [r7, #2]
 8000430:	78fb      	ldrb	r3, [r7, #3]
 8000432:	005b      	lsls	r3, r3, #1
 8000434:	2202      	movs	r2, #2
 8000436:	f000 f983 	bl	8000740 <WriteIntoRegister>
 800043a:	bf00      	nop
 800043c:	3708      	adds	r7, #8
 800043e:	46bd      	mov	sp, r7
 8000440:	bd80      	pop	{r7, pc}

08000442 <TogglePin>:
 8000442:	b580      	push	{r7, lr}
 8000444:	b084      	sub	sp, #16
 8000446:	af00      	add	r7, sp, #0
 8000448:	60f8      	str	r0, [r7, #12]
 800044a:	460b      	mov	r3, r1
 800044c:	607a      	str	r2, [r7, #4]
 800044e:	72fb      	strb	r3, [r7, #11]
 8000450:	68fb      	ldr	r3, [r7, #12]
 8000452:	f103 0014 	add.w	r0, r3, #20
 8000456:	6879      	ldr	r1, [r7, #4]
 8000458:	7afb      	ldrb	r3, [r7, #11]
 800045a:	2201      	movs	r2, #1
 800045c:	f000 f970 	bl	8000740 <WriteIntoRegister>
 8000460:	bf00      	nop
 8000462:	3710      	adds	r7, #16
 8000464:	46bd      	mov	sp, r7
 8000466:	bd80      	pop	{r7, pc}

08000468 <SetVoltageRegulatorScale>:
 8000468:	b580      	push	{r7, lr}
 800046a:	b082      	sub	sp, #8
 800046c:	af00      	add	r7, sp, #0
 800046e:	4603      	mov	r3, r0
 8000470:	71fb      	strb	r3, [r7, #7]
 8000472:	4b06      	ldr	r3, [pc, #24]	; (800048c <SetVoltageRegulatorScale+0x24>)
 8000474:	681b      	ldr	r3, [r3, #0]
 8000476:	4618      	mov	r0, r3
 8000478:	79f9      	ldrb	r1, [r7, #7]
 800047a:	2309      	movs	r3, #9
 800047c:	2202      	movs	r2, #2
 800047e:	f000 f95f 	bl	8000740 <WriteIntoRegister>
 8000482:	bf00      	nop
 8000484:	3708      	adds	r7, #8
 8000486:	46bd      	mov	sp, r7
 8000488:	bd80      	pop	{r7, pc}
 800048a:	bf00      	nop
 800048c:	2000001c 	andcs	r0, r0, ip, lsl r0

08000490 <SetSystemClockSource>:
 8000490:	b580      	push	{r7, lr}
 8000492:	b082      	sub	sp, #8
 8000494:	af00      	add	r7, sp, #0
 8000496:	4603      	mov	r3, r0
 8000498:	71fb      	strb	r3, [r7, #7]
 800049a:	4b0b      	ldr	r3, [pc, #44]	; (80004c8 <SetSystemClockSource+0x38>)
 800049c:	681b      	ldr	r3, [r3, #0]
 800049e:	f103 0008 	add.w	r0, r3, #8
 80004a2:	79f9      	ldrb	r1, [r7, #7]
 80004a4:	2300      	movs	r3, #0
 80004a6:	2202      	movs	r2, #2
 80004a8:	f000 f94a 	bl	8000740 <WriteIntoRegister>
 80004ac:	bf00      	nop
 80004ae:	4b06      	ldr	r3, [pc, #24]	; (80004c8 <SetSystemClockSource+0x38>)
 80004b0:	681b      	ldr	r3, [r3, #0]
 80004b2:	689a      	ldr	r2, [r3, #8]
 80004b4:	79fb      	ldrb	r3, [r7, #7]
 80004b6:	4013      	ands	r3, r2
 80004b8:	2b00      	cmp	r3, #0
 80004ba:	d0f8      	beq.n	80004ae <SetSystemClockSource+0x1e>
 80004bc:	bf00      	nop
 80004be:	bf00      	nop
 80004c0:	3708      	adds	r7, #8
 80004c2:	46bd      	mov	sp, r7
 80004c4:	bd80      	pop	{r7, pc}
 80004c6:	bf00      	nop
 80004c8:	20000000 	andcs	r0, r0, r0

080004cc <ToggleMSI>:
 80004cc:	b580      	push	{r7, lr}
 80004ce:	b082      	sub	sp, #8
 80004d0:	af00      	add	r7, sp, #0
 80004d2:	6078      	str	r0, [r7, #4]
 80004d4:	4b0a      	ldr	r3, [pc, #40]	; (8000500 <ToggleMSI+0x34>)
 80004d6:	681b      	ldr	r3, [r3, #0]
 80004d8:	4618      	mov	r0, r3
 80004da:	6879      	ldr	r1, [r7, #4]
 80004dc:	2300      	movs	r3, #0
 80004de:	2201      	movs	r2, #1
 80004e0:	f000 f92e 	bl	8000740 <WriteIntoRegister>
 80004e4:	bf00      	nop
 80004e6:	4b06      	ldr	r3, [pc, #24]	; (8000500 <ToggleMSI+0x34>)
 80004e8:	681b      	ldr	r3, [r3, #0]
 80004ea:	681b      	ldr	r3, [r3, #0]
 80004ec:	687a      	ldr	r2, [r7, #4]
 80004ee:	0052      	lsls	r2, r2, #1
 80004f0:	4013      	ands	r3, r2
 80004f2:	2b00      	cmp	r3, #0
 80004f4:	d0f7      	beq.n	80004e6 <ToggleMSI+0x1a>
 80004f6:	bf00      	nop
 80004f8:	bf00      	nop
 80004fa:	3708      	adds	r7, #8
 80004fc:	46bd      	mov	sp, r7
 80004fe:	bd80      	pop	{r7, pc}
 8000500:	20000000 	andcs	r0, r0, r0

08000504 <ToggleHSI>:
 8000504:	b580      	push	{r7, lr}
 8000506:	b082      	sub	sp, #8
 8000508:	af00      	add	r7, sp, #0
 800050a:	6078      	str	r0, [r7, #4]
 800050c:	4b0a      	ldr	r3, [pc, #40]	; (8000538 <ToggleHSI+0x34>)
 800050e:	681b      	ldr	r3, [r3, #0]
 8000510:	4618      	mov	r0, r3
 8000512:	6879      	ldr	r1, [r7, #4]
 8000514:	2308      	movs	r3, #8
 8000516:	2201      	movs	r2, #1
 8000518:	f000 f912 	bl	8000740 <WriteIntoRegister>
 800051c:	bf00      	nop
 800051e:	4b06      	ldr	r3, [pc, #24]	; (8000538 <ToggleHSI+0x34>)
 8000520:	681b      	ldr	r3, [r3, #0]
 8000522:	681b      	ldr	r3, [r3, #0]
 8000524:	687a      	ldr	r2, [r7, #4]
 8000526:	0292      	lsls	r2, r2, #10
 8000528:	4013      	ands	r3, r2
 800052a:	2b00      	cmp	r3, #0
 800052c:	d0f7      	beq.n	800051e <ToggleHSI+0x1a>
 800052e:	bf00      	nop
 8000530:	bf00      	nop
 8000532:	3708      	adds	r7, #8
 8000534:	46bd      	mov	sp, r7
 8000536:	bd80      	pop	{r7, pc}
 8000538:	20000000 	andcs	r0, r0, r0

0800053c <ToggleHSE>:
 800053c:	b580      	push	{r7, lr}
 800053e:	b082      	sub	sp, #8
 8000540:	af00      	add	r7, sp, #0
 8000542:	6078      	str	r0, [r7, #4]
 8000544:	4b0a      	ldr	r3, [pc, #40]	; (8000570 <ToggleHSE+0x34>)
 8000546:	681b      	ldr	r3, [r3, #0]
 8000548:	4618      	mov	r0, r3
 800054a:	6879      	ldr	r1, [r7, #4]
 800054c:	2310      	movs	r3, #16
 800054e:	2201      	movs	r2, #1
 8000550:	f000 f8f6 	bl	8000740 <WriteIntoRegister>
 8000554:	bf00      	nop
 8000556:	4b06      	ldr	r3, [pc, #24]	; (8000570 <ToggleHSE+0x34>)
 8000558:	681b      	ldr	r3, [r3, #0]
 800055a:	681b      	ldr	r3, [r3, #0]
 800055c:	687a      	ldr	r2, [r7, #4]
 800055e:	0452      	lsls	r2, r2, #17
 8000560:	4013      	ands	r3, r2
 8000562:	2b00      	cmp	r3, #0
 8000564:	d0f7      	beq.n	8000556 <ToggleHSE+0x1a>
 8000566:	bf00      	nop
 8000568:	bf00      	nop
 800056a:	3708      	adds	r7, #8
 800056c:	46bd      	mov	sp, r7
 800056e:	bd80      	pop	{r7, pc}
 8000570:	20000000 	andcs	r0, r0, r0

08000574 <TogglePLL>:
 8000574:	b580      	push	{r7, lr}
 8000576:	b082      	sub	sp, #8
 8000578:	af00      	add	r7, sp, #0
 800057a:	6078      	str	r0, [r7, #4]
 800057c:	4b0a      	ldr	r3, [pc, #40]	; (80005a8 <TogglePLL+0x34>)
 800057e:	681b      	ldr	r3, [r3, #0]
 8000580:	4618      	mov	r0, r3
 8000582:	6879      	ldr	r1, [r7, #4]
 8000584:	2318      	movs	r3, #24
 8000586:	2201      	movs	r2, #1
 8000588:	f000 f8da 	bl	8000740 <WriteIntoRegister>
 800058c:	bf00      	nop
 800058e:	4b06      	ldr	r3, [pc, #24]	; (80005a8 <TogglePLL+0x34>)
 8000590:	681b      	ldr	r3, [r3, #0]
 8000592:	681b      	ldr	r3, [r3, #0]
 8000594:	687a      	ldr	r2, [r7, #4]
 8000596:	0652      	lsls	r2, r2, #25
 8000598:	4013      	ands	r3, r2
 800059a:	2b00      	cmp	r3, #0
 800059c:	d0f7      	beq.n	800058e <TogglePLL+0x1a>
 800059e:	bf00      	nop
 80005a0:	bf00      	nop
 80005a2:	3708      	adds	r7, #8
 80005a4:	46bd      	mov	sp, r7
 80005a6:	bd80      	pop	{r7, pc}
 80005a8:	20000000 	andcs	r0, r0, r0

080005ac <SetAHBPrescaler>:
 80005ac:	b580      	push	{r7, lr}
 80005ae:	b082      	sub	sp, #8
 80005b0:	af00      	add	r7, sp, #0
 80005b2:	4603      	mov	r3, r0
 80005b4:	71fb      	strb	r3, [r7, #7]
 80005b6:	4b06      	ldr	r3, [pc, #24]	; (80005d0 <SetAHBPrescaler+0x24>)
 80005b8:	681b      	ldr	r3, [r3, #0]
 80005ba:	f103 0008 	add.w	r0, r3, #8
 80005be:	79f9      	ldrb	r1, [r7, #7]
 80005c0:	2304      	movs	r3, #4
 80005c2:	2204      	movs	r2, #4
 80005c4:	f000 f8bc 	bl	8000740 <WriteIntoRegister>
 80005c8:	bf00      	nop
 80005ca:	3708      	adds	r7, #8
 80005cc:	46bd      	mov	sp, r7
 80005ce:	bd80      	pop	{r7, pc}
 80005d0:	20000000 	andcs	r0, r0, r0

080005d4 <SetAPB1Prescaler>:
 80005d4:	b580      	push	{r7, lr}
 80005d6:	b082      	sub	sp, #8
 80005d8:	af00      	add	r7, sp, #0
 80005da:	4603      	mov	r3, r0
 80005dc:	71fb      	strb	r3, [r7, #7]
 80005de:	4b06      	ldr	r3, [pc, #24]	; (80005f8 <SetAPB1Prescaler+0x24>)
 80005e0:	681b      	ldr	r3, [r3, #0]
 80005e2:	f103 0008 	add.w	r0, r3, #8
 80005e6:	79f9      	ldrb	r1, [r7, #7]
 80005e8:	2308      	movs	r3, #8
 80005ea:	2203      	movs	r2, #3
 80005ec:	f000 f8a8 	bl	8000740 <WriteIntoRegister>
 80005f0:	bf00      	nop
 80005f2:	3708      	adds	r7, #8
 80005f4:	46bd      	mov	sp, r7
 80005f6:	bd80      	pop	{r7, pc}
 80005f8:	20000000 	andcs	r0, r0, r0

080005fc <SetAPB2Prescaler>:
 80005fc:	b580      	push	{r7, lr}
 80005fe:	b082      	sub	sp, #8
 8000600:	af00      	add	r7, sp, #0
 8000602:	4603      	mov	r3, r0
 8000604:	71fb      	strb	r3, [r7, #7]
 8000606:	4b06      	ldr	r3, [pc, #24]	; (8000620 <SetAPB2Prescaler+0x24>)
 8000608:	681b      	ldr	r3, [r3, #0]
 800060a:	f103 0008 	add.w	r0, r3, #8
 800060e:	79f9      	ldrb	r1, [r7, #7]
 8000610:	230b      	movs	r3, #11
 8000612:	2203      	movs	r2, #3
 8000614:	f000 f894 	bl	8000740 <WriteIntoRegister>
 8000618:	bf00      	nop
 800061a:	3708      	adds	r7, #8
 800061c:	46bd      	mov	sp, r7
 800061e:	bd80      	pop	{r7, pc}
 8000620:	20000000 	andcs	r0, r0, r0

08000624 <TogglePLLOutput>:
 8000624:	b580      	push	{r7, lr}
 8000626:	b082      	sub	sp, #8
 8000628:	af00      	add	r7, sp, #0
 800062a:	6078      	str	r0, [r7, #4]
 800062c:	4b06      	ldr	r3, [pc, #24]	; (8000648 <TogglePLLOutput+0x24>)
 800062e:	681b      	ldr	r3, [r3, #0]
 8000630:	f103 000c 	add.w	r0, r3, #12
 8000634:	6879      	ldr	r1, [r7, #4]
 8000636:	2318      	movs	r3, #24
 8000638:	2201      	movs	r2, #1
 800063a:	f000 f881 	bl	8000740 <WriteIntoRegister>
 800063e:	bf00      	nop
 8000640:	3708      	adds	r7, #8
 8000642:	46bd      	mov	sp, r7
 8000644:	bd80      	pop	{r7, pc}
 8000646:	bf00      	nop
 8000648:	20000000 	andcs	r0, r0, r0

0800064c <SetPLLSource>:
 800064c:	b580      	push	{r7, lr}
 800064e:	b082      	sub	sp, #8
 8000650:	af00      	add	r7, sp, #0
 8000652:	4603      	mov	r3, r0
 8000654:	71fb      	strb	r3, [r7, #7]
 8000656:	4b06      	ldr	r3, [pc, #24]	; (8000670 <SetPLLSource+0x24>)
 8000658:	681b      	ldr	r3, [r3, #0]
 800065a:	f103 000c 	add.w	r0, r3, #12
 800065e:	79f9      	ldrb	r1, [r7, #7]
 8000660:	2300      	movs	r3, #0
 8000662:	2202      	movs	r2, #2
 8000664:	f000 f86c 	bl	8000740 <WriteIntoRegister>
 8000668:	bf00      	nop
 800066a:	3708      	adds	r7, #8
 800066c:	46bd      	mov	sp, r7
 800066e:	bd80      	pop	{r7, pc}
 8000670:	20000000 	andcs	r0, r0, r0

08000674 <SetPLLM>:
 8000674:	b580      	push	{r7, lr}
 8000676:	b082      	sub	sp, #8
 8000678:	af00      	add	r7, sp, #0
 800067a:	4603      	mov	r3, r0
 800067c:	71fb      	strb	r3, [r7, #7]
 800067e:	4b06      	ldr	r3, [pc, #24]	; (8000698 <SetPLLM+0x24>)
 8000680:	681b      	ldr	r3, [r3, #0]
 8000682:	f103 000c 	add.w	r0, r3, #12
 8000686:	79f9      	ldrb	r1, [r7, #7]
 8000688:	2304      	movs	r3, #4
 800068a:	2203      	movs	r2, #3
 800068c:	f000 f858 	bl	8000740 <WriteIntoRegister>
 8000690:	bf00      	nop
 8000692:	3708      	adds	r7, #8
 8000694:	46bd      	mov	sp, r7
 8000696:	bd80      	pop	{r7, pc}
 8000698:	20000000 	andcs	r0, r0, r0

0800069c <SetPLLN>:
 800069c:	b580      	push	{r7, lr}
 800069e:	b082      	sub	sp, #8
 80006a0:	af00      	add	r7, sp, #0
 80006a2:	4603      	mov	r3, r0
 80006a4:	71fb      	strb	r3, [r7, #7]
 80006a6:	4b06      	ldr	r3, [pc, #24]	; (80006c0 <SetPLLN+0x24>)
 80006a8:	681b      	ldr	r3, [r3, #0]
 80006aa:	f103 000c 	add.w	r0, r3, #12
 80006ae:	79f9      	ldrb	r1, [r7, #7]
 80006b0:	2308      	movs	r3, #8
 80006b2:	2207      	movs	r2, #7
 80006b4:	f000 f844 	bl	8000740 <WriteIntoRegister>
 80006b8:	bf00      	nop
 80006ba:	3708      	adds	r7, #8
 80006bc:	46bd      	mov	sp, r7
 80006be:	bd80      	pop	{r7, pc}
 80006c0:	20000000 	andcs	r0, r0, r0

080006c4 <SetPLLR>:
 80006c4:	b580      	push	{r7, lr}
 80006c6:	b082      	sub	sp, #8
 80006c8:	af00      	add	r7, sp, #0
 80006ca:	4603      	mov	r3, r0
 80006cc:	71fb      	strb	r3, [r7, #7]
 80006ce:	4b06      	ldr	r3, [pc, #24]	; (80006e8 <SetPLLR+0x24>)
 80006d0:	681b      	ldr	r3, [r3, #0]
 80006d2:	f103 000c 	add.w	r0, r3, #12
 80006d6:	79f9      	ldrb	r1, [r7, #7]
 80006d8:	2319      	movs	r3, #25
 80006da:	2202      	movs	r2, #2
 80006dc:	f000 f830 	bl	8000740 <WriteIntoRegister>
 80006e0:	bf00      	nop
 80006e2:	3708      	adds	r7, #8
 80006e4:	46bd      	mov	sp, r7
 80006e6:	bd80      	pop	{r7, pc}
 80006e8:	20000000 	andcs	r0, r0, r0

080006ec <TogglePowerInterfaceClock>:
 80006ec:	b580      	push	{r7, lr}
 80006ee:	b082      	sub	sp, #8
 80006f0:	af00      	add	r7, sp, #0
 80006f2:	6078      	str	r0, [r7, #4]
 80006f4:	4b06      	ldr	r3, [pc, #24]	; (8000710 <TogglePowerInterfaceClock+0x24>)
 80006f6:	681b      	ldr	r3, [r3, #0]
 80006f8:	f103 0058 	add.w	r0, r3, #88	; 0x58
 80006fc:	6879      	ldr	r1, [r7, #4]
 80006fe:	231c      	movs	r3, #28
 8000700:	2201      	movs	r2, #1
 8000702:	f000 f81d 	bl	8000740 <WriteIntoRegister>
 8000706:	bf00      	nop
 8000708:	3708      	adds	r7, #8
 800070a:	46bd      	mov	sp, r7
 800070c:	bd80      	pop	{r7, pc}
 800070e:	bf00      	nop
 8000710:	20000000 	andcs	r0, r0, r0

08000714 <ToggleGpioClock>:
 8000714:	b580      	push	{r7, lr}
 8000716:	b082      	sub	sp, #8
 8000718:	af00      	add	r7, sp, #0
 800071a:	4603      	mov	r3, r0
 800071c:	6039      	str	r1, [r7, #0]
 800071e:	71fb      	strb	r3, [r7, #7]
 8000720:	4b06      	ldr	r3, [pc, #24]	; (800073c <ToggleGpioClock+0x28>)
 8000722:	681b      	ldr	r3, [r3, #0]
 8000724:	f103 004c 	add.w	r0, r3, #76	; 0x4c
 8000728:	6839      	ldr	r1, [r7, #0]
 800072a:	79fb      	ldrb	r3, [r7, #7]
 800072c:	2201      	movs	r2, #1
 800072e:	f000 f807 	bl	8000740 <WriteIntoRegister>
 8000732:	bf00      	nop
 8000734:	3708      	adds	r7, #8
 8000736:	46bd      	mov	sp, r7
 8000738:	bd80      	pop	{r7, pc}
 800073a:	bf00      	nop
 800073c:	20000000 	andcs	r0, r0, r0

08000740 <WriteIntoRegister>:
 8000740:	b480      	push	{r7}
 8000742:	b087      	sub	sp, #28
 8000744:	af00      	add	r7, sp, #0
 8000746:	60f8      	str	r0, [r7, #12]
 8000748:	60b9      	str	r1, [r7, #8]
 800074a:	607a      	str	r2, [r7, #4]
 800074c:	603b      	str	r3, [r7, #0]
 800074e:	2300      	movs	r3, #0
 8000750:	617b      	str	r3, [r7, #20]
 8000752:	2300      	movs	r3, #0
 8000754:	613b      	str	r3, [r7, #16]
 8000756:	e007      	b.n	8000768 <WriteIntoRegister+0x28>
 8000758:	697b      	ldr	r3, [r7, #20]
 800075a:	005b      	lsls	r3, r3, #1
 800075c:	f043 0301 	orr.w	r3, r3, #1
 8000760:	617b      	str	r3, [r7, #20]
 8000762:	693b      	ldr	r3, [r7, #16]
 8000764:	3301      	adds	r3, #1
 8000766:	613b      	str	r3, [r7, #16]
 8000768:	693b      	ldr	r3, [r7, #16]
 800076a:	687a      	ldr	r2, [r7, #4]
 800076c:	429a      	cmp	r2, r3
 800076e:	d8f3      	bhi.n	8000758 <WriteIntoRegister+0x18>
 8000770:	68fb      	ldr	r3, [r7, #12]
 8000772:	681a      	ldr	r2, [r3, #0]
 8000774:	6979      	ldr	r1, [r7, #20]
 8000776:	683b      	ldr	r3, [r7, #0]
 8000778:	fa01 f303 	lsl.w	r3, r1, r3
 800077c:	43db      	mvns	r3, r3
 800077e:	401a      	ands	r2, r3
 8000780:	68fb      	ldr	r3, [r7, #12]
 8000782:	601a      	str	r2, [r3, #0]
 8000784:	68fb      	ldr	r3, [r7, #12]
 8000786:	681a      	ldr	r2, [r3, #0]
 8000788:	68b9      	ldr	r1, [r7, #8]
 800078a:	683b      	ldr	r3, [r7, #0]
 800078c:	fa01 f303 	lsl.w	r3, r1, r3
 8000790:	431a      	orrs	r2, r3
 8000792:	68fb      	ldr	r3, [r7, #12]
 8000794:	601a      	str	r2, [r3, #0]
 8000796:	bf00      	nop
 8000798:	371c      	adds	r7, #28
 800079a:	46bd      	mov	sp, r7
 800079c:	bc80      	pop	{r7}
 800079e:	4770      	bx	lr

080007a0 <setup>:
 80007a0:	b580      	push	{r7, lr}
 80007a2:	af00      	add	r7, sp, #0
 80007a4:	4b0c      	ldr	r3, [pc, #48]	; (80007d8 <setup+0x38>)
 80007a6:	2200      	movs	r2, #0
 80007a8:	601a      	str	r2, [r3, #0]
 80007aa:	4b0c      	ldr	r3, [pc, #48]	; (80007dc <setup+0x3c>)
 80007ac:	681b      	ldr	r3, [r3, #0]
 80007ae:	2201      	movs	r2, #1
 80007b0:	210d      	movs	r1, #13
 80007b2:	4618      	mov	r0, r3
 80007b4:	f7ff fe08 	bl	80003c8 <SetPinMode>
 80007b8:	4b08      	ldr	r3, [pc, #32]	; (80007dc <setup+0x3c>)
 80007ba:	681b      	ldr	r3, [r3, #0]
 80007bc:	2201      	movs	r2, #1
 80007be:	210d      	movs	r1, #13
 80007c0:	4618      	mov	r0, r3
 80007c2:	f7ff fe14 	bl	80003ee <SetPinSpeed>
 80007c6:	4b05      	ldr	r3, [pc, #20]	; (80007dc <setup+0x3c>)
 80007c8:	681b      	ldr	r3, [r3, #0]
 80007ca:	2200      	movs	r2, #0
 80007cc:	210d      	movs	r1, #13
 80007ce:	4618      	mov	r0, r3
 80007d0:	f7ff fe22 	bl	8000418 <SetPullUpPullDown>
 80007d4:	bf00      	nop
 80007d6:	bd80      	pop	{r7, pc}
 80007d8:	20000030 	andcs	r0, r0, r0, lsr r0
 80007dc:	20000008 	andcs	r0, r0, r8

080007e0 <loop>:
 80007e0:	b580      	push	{r7, lr}
 80007e2:	af00      	add	r7, sp, #0
 80007e4:	4b13      	ldr	r3, [pc, #76]	; (8000834 <loop+0x54>)
 80007e6:	681a      	ldr	r2, [r3, #0]
 80007e8:	4b13      	ldr	r3, [pc, #76]	; (8000838 <loop+0x58>)
 80007ea:	681b      	ldr	r3, [r3, #0]
 80007ec:	1ad3      	subs	r3, r2, r3
 80007ee:	f5b3 7ffa 	cmp.w	r3, #500	; 0x1f4
 80007f2:	d31c      	bcc.n	800082e <loop+0x4e>
 80007f4:	4b0f      	ldr	r3, [pc, #60]	; (8000834 <loop+0x54>)
 80007f6:	681b      	ldr	r3, [r3, #0]
 80007f8:	4a0f      	ldr	r2, [pc, #60]	; (8000838 <loop+0x58>)
 80007fa:	6013      	str	r3, [r2, #0]
 80007fc:	4b0f      	ldr	r3, [pc, #60]	; (800083c <loop+0x5c>)
 80007fe:	681b      	ldr	r3, [r3, #0]
 8000800:	2b01      	cmp	r3, #1
 8000802:	d10a      	bne.n	800081a <loop+0x3a>
 8000804:	4b0e      	ldr	r3, [pc, #56]	; (8000840 <loop+0x60>)
 8000806:	681b      	ldr	r3, [r3, #0]
 8000808:	2200      	movs	r2, #0
 800080a:	210d      	movs	r1, #13
 800080c:	4618      	mov	r0, r3
 800080e:	f7ff fe18 	bl	8000442 <TogglePin>
 8000812:	4b0a      	ldr	r3, [pc, #40]	; (800083c <loop+0x5c>)
 8000814:	2200      	movs	r2, #0
 8000816:	601a      	str	r2, [r3, #0]
 8000818:	e009      	b.n	800082e <loop+0x4e>
 800081a:	4b09      	ldr	r3, [pc, #36]	; (8000840 <loop+0x60>)
 800081c:	681b      	ldr	r3, [r3, #0]
 800081e:	2201      	movs	r2, #1
 8000820:	210d      	movs	r1, #13
 8000822:	4618      	mov	r0, r3
 8000824:	f7ff fe0d 	bl	8000442 <TogglePin>
 8000828:	4b04      	ldr	r3, [pc, #16]	; (800083c <loop+0x5c>)
 800082a:	2201      	movs	r2, #1
 800082c:	601a      	str	r2, [r3, #0]
 800082e:	bf00      	nop
 8000830:	bd80      	pop	{r7, pc}
 8000832:	bf00      	nop
 8000834:	20000028 	andcs	r0, r0, r8, lsr #32
 8000838:	20000034 	andcs	r0, r0, r4, lsr r0
 800083c:	20000030 	andcs	r0, r0, r0, lsr r0
 8000840:	20000008 	andcs	r0, r0, r8

08000844 <Common_Handler>:
 8000844:	b480      	push	{r7}
 8000846:	af00      	add	r7, sp, #0
 8000848:	e7fe      	b.n	8000848 <Common_Handler+0x4>

0800084a <Reset_Handler>:
 800084a:	b580      	push	{r7, lr}
 800084c:	b086      	sub	sp, #24
 800084e:	af00      	add	r7, sp, #0
 8000850:	4a1b      	ldr	r2, [pc, #108]	; (80008c0 <Reset_Handler+0x76>)
 8000852:	4b1c      	ldr	r3, [pc, #112]	; (80008c4 <Reset_Handler+0x7a>)
 8000854:	1ad3      	subs	r3, r2, r3
 8000856:	109b      	asrs	r3, r3, #2
 8000858:	607b      	str	r3, [r7, #4]
 800085a:	4b1a      	ldr	r3, [pc, #104]	; (80008c4 <Reset_Handler+0x7a>)
 800085c:	617b      	str	r3, [r7, #20]
 800085e:	4b1a      	ldr	r3, [pc, #104]	; (80008c8 <Reset_Handler+0x7e>)
 8000860:	613b      	str	r3, [r7, #16]
 8000862:	2300      	movs	r3, #0
 8000864:	60fb      	str	r3, [r7, #12]
 8000866:	e00a      	b.n	800087e <Reset_Handler+0x34>
 8000868:	693a      	ldr	r2, [r7, #16]
 800086a:	1c53      	adds	r3, r2, #1
 800086c:	613b      	str	r3, [r7, #16]
 800086e:	697b      	ldr	r3, [r7, #20]
 8000870:	1c59      	adds	r1, r3, #1
 8000872:	6179      	str	r1, [r7, #20]
 8000874:	7812      	ldrb	r2, [r2, #0]
 8000876:	701a      	strb	r2, [r3, #0]
 8000878:	68fb      	ldr	r3, [r7, #12]
 800087a:	3301      	adds	r3, #1
 800087c:	60fb      	str	r3, [r7, #12]
 800087e:	68fa      	ldr	r2, [r7, #12]
 8000880:	687b      	ldr	r3, [r7, #4]
 8000882:	429a      	cmp	r2, r3
 8000884:	d3f0      	bcc.n	8000868 <Reset_Handler+0x1e>
 8000886:	4a11      	ldr	r2, [pc, #68]	; (80008cc <Reset_Handler+0x82>)
 8000888:	4b11      	ldr	r3, [pc, #68]	; (80008d0 <Reset_Handler+0x86>)
 800088a:	1ad3      	subs	r3, r2, r3
 800088c:	109b      	asrs	r3, r3, #2
 800088e:	607b      	str	r3, [r7, #4]
 8000890:	4b0f      	ldr	r3, [pc, #60]	; (80008d0 <Reset_Handler+0x86>)
 8000892:	617b      	str	r3, [r7, #20]
 8000894:	2300      	movs	r3, #0
 8000896:	60bb      	str	r3, [r7, #8]
 8000898:	e007      	b.n	80008aa <Reset_Handler+0x60>
 800089a:	697b      	ldr	r3, [r7, #20]
 800089c:	1c5a      	adds	r2, r3, #1
 800089e:	617a      	str	r2, [r7, #20]
 80008a0:	2200      	movs	r2, #0
 80008a2:	701a      	strb	r2, [r3, #0]
 80008a4:	68bb      	ldr	r3, [r7, #8]
 80008a6:	3301      	adds	r3, #1
 80008a8:	60bb      	str	r3, [r7, #8]
 80008aa:	68ba      	ldr	r2, [r7, #8]
 80008ac:	687b      	ldr	r3, [r7, #4]
 80008ae:	429a      	cmp	r2, r3
 80008b0:	d3f3      	bcc.n	800089a <Reset_Handler+0x50>
 80008b2:	f7ff fd35 	bl	8000320 <main>
 80008b6:	bf00      	nop
 80008b8:	3718      	adds	r7, #24
 80008ba:	46bd      	mov	sp, r7
 80008bc:	bd80      	pop	{r7, pc}
 80008be:	bf00      	nop
 80008c0:	20000000 	andcs	r0, r0, r0
 80008c4:	20000000 	andcs	r0, r0, r0
 80008c8:	080008d4 	stmdaeq	r0, {r2, r4, r6, r7, fp}
 80008cc:	20000038 	andcs	r0, r0, r8, lsr r0
 80008d0:	20000028 	andcs	r0, r0, r8, lsr #32
