
build/final.elf:     file format elf32-littlearm


Disassembly of section .text:

08000000 <isr_vectors>:
 8000000:	20028000 	andcs	r8, r2, r0
 8000004:	0800084b 	stmdaeq	r0, {r0, r1, r3, r6, fp}
 8000008:	08000845 	stmdaeq	r0, {r0, r2, r6, fp}
 800000c:	08000845 	stmdaeq	r0, {r0, r2, r6, fp}
 8000010:	08000845 	stmdaeq	r0, {r0, r2, r6, fp}
 8000014:	08000845 	stmdaeq	r0, {r0, r2, r6, fp}
 8000018:	08000845 	stmdaeq	r0, {r0, r2, r6, fp}
 800001c:	00000000 	andeq	r0, r0, r0
 8000020:	08000845 	stmdaeq	r0, {r0, r2, r6, fp}
 8000024:	08000845 	stmdaeq	r0, {r0, r2, r6, fp}
 8000028:	00000000 	andeq	r0, r0, r0
 800002c:	08000845 	stmdaeq	r0, {r0, r2, r6, fp}
 8000030:	080002d9 	stmdaeq	r0, {r0, r3, r4, r6, r7, r9}
 8000034:	08000845 	stmdaeq	r0, {r0, r2, r6, fp}
 8000038:	08000845 	stmdaeq	r0, {r0, r2, r6, fp}
 800003c:	08000845 	stmdaeq	r0, {r0, r2, r6, fp}
 8000040:	08000845 	stmdaeq	r0, {r0, r2, r6, fp}
 8000044:	08000845 	stmdaeq	r0, {r0, r2, r6, fp}
 8000048:	08000845 	stmdaeq	r0, {r0, r2, r6, fp}
 800004c:	08000845 	stmdaeq	r0, {r0, r2, r6, fp}
 8000050:	08000845 	stmdaeq	r0, {r0, r2, r6, fp}
 8000054:	08000845 	stmdaeq	r0, {r0, r2, r6, fp}
 8000058:	08000845 	stmdaeq	r0, {r0, r2, r6, fp}
 800005c:	08000845 	stmdaeq	r0, {r0, r2, r6, fp}
 8000060:	08000845 	stmdaeq	r0, {r0, r2, r6, fp}
 8000064:	08000845 	stmdaeq	r0, {r0, r2, r6, fp}
 8000068:	08000845 	stmdaeq	r0, {r0, r2, r6, fp}
 800006c:	08000845 	stmdaeq	r0, {r0, r2, r6, fp}
 8000070:	08000845 	stmdaeq	r0, {r0, r2, r6, fp}
 8000074:	08000845 	stmdaeq	r0, {r0, r2, r6, fp}
 8000078:	08000845 	stmdaeq	r0, {r0, r2, r6, fp}
 800007c:	08000845 	stmdaeq	r0, {r0, r2, r6, fp}
 8000080:	08000845 	stmdaeq	r0, {r0, r2, r6, fp}
 8000084:	08000845 	stmdaeq	r0, {r0, r2, r6, fp}
 8000088:	08000845 	stmdaeq	r0, {r0, r2, r6, fp}
 800008c:	08000845 	stmdaeq	r0, {r0, r2, r6, fp}
 8000090:	08000845 	stmdaeq	r0, {r0, r2, r6, fp}
 8000094:	08000845 	stmdaeq	r0, {r0, r2, r6, fp}
 8000098:	08000845 	stmdaeq	r0, {r0, r2, r6, fp}
 800009c:	08000845 	stmdaeq	r0, {r0, r2, r6, fp}
 80000a0:	08000845 	stmdaeq	r0, {r0, r2, r6, fp}
 80000a4:	08000845 	stmdaeq	r0, {r0, r2, r6, fp}
 80000a8:	08000845 	stmdaeq	r0, {r0, r2, r6, fp}
 80000ac:	00000000 	andeq	r0, r0, r0
 80000b0:	08000845 	stmdaeq	r0, {r0, r2, r6, fp}
 80000b4:	08000845 	stmdaeq	r0, {r0, r2, r6, fp}
 80000b8:	08000845 	stmdaeq	r0, {r0, r2, r6, fp}
 80000bc:	08000845 	stmdaeq	r0, {r0, r2, r6, fp}
 80000c0:	08000845 	stmdaeq	r0, {r0, r2, r6, fp}
 80000c4:	08000845 	stmdaeq	r0, {r0, r2, r6, fp}
 80000c8:	08000845 	stmdaeq	r0, {r0, r2, r6, fp}
 80000cc:	08000845 	stmdaeq	r0, {r0, r2, r6, fp}
 80000d0:	08000845 	stmdaeq	r0, {r0, r2, r6, fp}
 80000d4:	08000845 	stmdaeq	r0, {r0, r2, r6, fp}
 80000d8:	08000845 	stmdaeq	r0, {r0, r2, r6, fp}
	...
 80000f8:	08000845 	stmdaeq	r0, {r0, r2, r6, fp}
 80000fc:	00000000 	andeq	r0, r0, r0
 8000100:	08000845 	stmdaeq	r0, {r0, r2, r6, fp}
 8000104:	08000845 	stmdaeq	r0, {r0, r2, r6, fp}
 8000108:	00000000 	andeq	r0, r0, r0
 800010c:	08000845 	stmdaeq	r0, {r0, r2, r6, fp}
 8000110:	08000845 	stmdaeq	r0, {r0, r2, r6, fp}
 8000114:	08000845 	stmdaeq	r0, {r0, r2, r6, fp}
 8000118:	08000845 	stmdaeq	r0, {r0, r2, r6, fp}
 800011c:	08000845 	stmdaeq	r0, {r0, r2, r6, fp}
 8000120:	08000845 	stmdaeq	r0, {r0, r2, r6, fp}
 8000124:	08000845 	stmdaeq	r0, {r0, r2, r6, fp}
 8000128:	08000845 	stmdaeq	r0, {r0, r2, r6, fp}
 800012c:	08000845 	stmdaeq	r0, {r0, r2, r6, fp}
 8000130:	00000000 	andeq	r0, r0, r0
 8000134:	08000845 	stmdaeq	r0, {r0, r2, r6, fp}
 8000138:	08000845 	stmdaeq	r0, {r0, r2, r6, fp}
 800013c:	08000845 	stmdaeq	r0, {r0, r2, r6, fp}
 8000140:	08000845 	stmdaeq	r0, {r0, r2, r6, fp}
 8000144:	08000845 	stmdaeq	r0, {r0, r2, r6, fp}
 8000148:	08000845 	stmdaeq	r0, {r0, r2, r6, fp}
 800014c:	08000845 	stmdaeq	r0, {r0, r2, r6, fp}
 8000150:	08000845 	stmdaeq	r0, {r0, r2, r6, fp}
 8000154:	08000845 	stmdaeq	r0, {r0, r2, r6, fp}
 8000158:	08000845 	stmdaeq	r0, {r0, r2, r6, fp}
 800015c:	08000845 	stmdaeq	r0, {r0, r2, r6, fp}
 8000160:	00000000 	andeq	r0, r0, r0
 8000164:	08000845 	stmdaeq	r0, {r0, r2, r6, fp}
 8000168:	08000845 	stmdaeq	r0, {r0, r2, r6, fp}
 800016c:	08000845 	stmdaeq	r0, {r0, r2, r6, fp}
 8000170:	08000845 	stmdaeq	r0, {r0, r2, r6, fp}
 8000174:	08000845 	stmdaeq	r0, {r0, r2, r6, fp}
 8000178:	08000845 	stmdaeq	r0, {r0, r2, r6, fp}
 800017c:	08000845 	stmdaeq	r0, {r0, r2, r6, fp}
 8000180:	08000845 	stmdaeq	r0, {r0, r2, r6, fp}
 8000184:	08000845 	stmdaeq	r0, {r0, r2, r6, fp}

08000188 <InitalSetup>:
 8000188:	b580      	push	{r7, lr}
 800018a:	af00      	add	r7, sp, #0
 800018c:	4b4d      	ldr	r3, [pc, #308]	; (80002c4 <InitalSetup+0x13c>)
 800018e:	2200      	movs	r2, #0
 8000190:	601a      	str	r2, [r3, #0]
 8000192:	4b4d      	ldr	r3, [pc, #308]	; (80002c8 <InitalSetup+0x140>)
 8000194:	2200      	movs	r2, #0
 8000196:	601a      	str	r2, [r3, #0]
 8000198:	2001      	movs	r0, #1
 800019a:	f000 f9cf 	bl	800053c <ToggleHSE>
 800019e:	2001      	movs	r0, #1
 80001a0:	f000 faa4 	bl	80006ec <TogglePowerInterfaceClock>
 80001a4:	2002      	movs	r0, #2
 80001a6:	f000 f95f 	bl	8000468 <SetVoltageRegulatorScale>
 80001aa:	2001      	movs	r0, #1
 80001ac:	f000 f8c2 	bl	8000334 <ToggleDataCache>
 80001b0:	2001      	movs	r0, #1
 80001b2:	f000 f8d1 	bl	8000358 <ToggleInstructionCache>
 80001b6:	2001      	movs	r0, #1
 80001b8:	f000 f8e0 	bl	800037c <TogglePrefetchBuffer>
 80001bc:	2004      	movs	r0, #4
 80001be:	f000 f8ef 	bl	80003a0 <SetFlashLatency>
 80001c2:	2000      	movs	r0, #0
 80001c4:	f000 f9f2 	bl	80005ac <SetAHBPrescaler>
 80001c8:	2000      	movs	r0, #0
 80001ca:	f000 fa03 	bl	80005d4 <SetAPB1Prescaler>
 80001ce:	2000      	movs	r0, #0
 80001d0:	f000 fa14 	bl	80005fc <SetAPB2Prescaler>
 80001d4:	2003      	movs	r0, #3
 80001d6:	f000 fa39 	bl	800064c <SetPLLSource>
 80001da:	2000      	movs	r0, #0
 80001dc:	f000 fa4a 	bl	8000674 <SetPLLM>
 80001e0:	2014      	movs	r0, #20
 80001e2:	f000 fa5b 	bl	800069c <SetPLLN>
 80001e6:	2000      	movs	r0, #0
 80001e8:	f000 fa6c 	bl	80006c4 <SetPLLR>
 80001ec:	2001      	movs	r0, #1
 80001ee:	f000 fa19 	bl	8000624 <TogglePLLOutput>
 80001f2:	2001      	movs	r0, #1
 80001f4:	f000 f9be 	bl	8000574 <TogglePLL>
 80001f8:	2003      	movs	r0, #3
 80001fa:	f000 f949 	bl	8000490 <SetSystemClockSource>
 80001fe:	2101      	movs	r1, #1
 8000200:	2000      	movs	r0, #0
 8000202:	f000 fa87 	bl	8000714 <ToggleGpioClock>
 8000206:	2101      	movs	r1, #1
 8000208:	2001      	movs	r0, #1
 800020a:	f000 fa83 	bl	8000714 <ToggleGpioClock>
 800020e:	2101      	movs	r1, #1
 8000210:	2002      	movs	r0, #2
 8000212:	f000 fa7f 	bl	8000714 <ToggleGpioClock>
 8000216:	2101      	movs	r1, #1
 8000218:	2003      	movs	r0, #3
 800021a:	f000 fa7b 	bl	8000714 <ToggleGpioClock>
 800021e:	2101      	movs	r1, #1
 8000220:	2004      	movs	r0, #4
 8000222:	f000 fa77 	bl	8000714 <ToggleGpioClock>
 8000226:	2101      	movs	r1, #1
 8000228:	2007      	movs	r0, #7
 800022a:	f000 fa73 	bl	8000714 <ToggleGpioClock>
 800022e:	4b27      	ldr	r3, [pc, #156]	; (80002cc <InitalSetup+0x144>)
 8000230:	681b      	ldr	r3, [r3, #0]
 8000232:	4618      	mov	r0, r3
 8000234:	2310      	movs	r3, #16
 8000236:	2202      	movs	r2, #2
 8000238:	2102      	movs	r1, #2
 800023a:	f000 fa81 	bl	8000740 <WriteIntoRegister>
 800023e:	4b23      	ldr	r3, [pc, #140]	; (80002cc <InitalSetup+0x144>)
 8000240:	681b      	ldr	r3, [r3, #0]
 8000242:	2202      	movs	r2, #2
 8000244:	2108      	movs	r1, #8
 8000246:	4618      	mov	r0, r3
 8000248:	f000 f8be 	bl	80003c8 <SetPinMode>
 800024c:	4b1f      	ldr	r3, [pc, #124]	; (80002cc <InitalSetup+0x144>)
 800024e:	681b      	ldr	r3, [r3, #0]
 8000250:	2203      	movs	r2, #3
 8000252:	2108      	movs	r1, #8
 8000254:	4618      	mov	r0, r3
 8000256:	f000 f8ca 	bl	80003ee <SetPinSpeed>
 800025a:	4b1d      	ldr	r3, [pc, #116]	; (80002d0 <InitalSetup+0x148>)
 800025c:	681b      	ldr	r3, [r3, #0]
 800025e:	f103 0008 	add.w	r0, r3, #8
 8000262:	2312      	movs	r3, #18
 8000264:	2203      	movs	r2, #3
 8000266:	2100      	movs	r1, #0
 8000268:	f000 fa6a 	bl	8000740 <WriteIntoRegister>
 800026c:	4b18      	ldr	r3, [pc, #96]	; (80002d0 <InitalSetup+0x148>)
 800026e:	681b      	ldr	r3, [r3, #0]
 8000270:	f103 0008 	add.w	r0, r3, #8
 8000274:	2318      	movs	r3, #24
 8000276:	2204      	movs	r2, #4
 8000278:	2101      	movs	r1, #1
 800027a:	f000 fa61 	bl	8000740 <WriteIntoRegister>
 800027e:	4b15      	ldr	r3, [pc, #84]	; (80002d4 <InitalSetup+0x14c>)
 8000280:	681b      	ldr	r3, [r3, #0]
 8000282:	4618      	mov	r0, r3
 8000284:	2300      	movs	r3, #0
 8000286:	2201      	movs	r2, #1
 8000288:	2101      	movs	r1, #1
 800028a:	f000 fa59 	bl	8000740 <WriteIntoRegister>
 800028e:	4b11      	ldr	r3, [pc, #68]	; (80002d4 <InitalSetup+0x14c>)
 8000290:	681b      	ldr	r3, [r3, #0]
 8000292:	4618      	mov	r0, r3
 8000294:	2301      	movs	r3, #1
 8000296:	2201      	movs	r2, #1
 8000298:	2101      	movs	r1, #1
 800029a:	f000 fa51 	bl	8000740 <WriteIntoRegister>
 800029e:	4b0d      	ldr	r3, [pc, #52]	; (80002d4 <InitalSetup+0x14c>)
 80002a0:	681b      	ldr	r3, [r3, #0]
 80002a2:	4618      	mov	r0, r3
 80002a4:	2302      	movs	r3, #2
 80002a6:	2201      	movs	r2, #1
 80002a8:	2101      	movs	r1, #1
 80002aa:	f000 fa49 	bl	8000740 <WriteIntoRegister>
 80002ae:	4b09      	ldr	r3, [pc, #36]	; (80002d4 <InitalSetup+0x14c>)
 80002b0:	681b      	ldr	r3, [r3, #0]
 80002b2:	1d18      	adds	r0, r3, #4
 80002b4:	2300      	movs	r3, #0
 80002b6:	2218      	movs	r2, #24
 80002b8:	f240 113f 	movw	r1, #319	; 0x13f
 80002bc:	f000 fa40 	bl	8000740 <WriteIntoRegister>
 80002c0:	bf00      	nop
 80002c2:	bd80      	pop	{r7, pc}
 80002c4:	20000028 	andcs	r0, r0, r8, lsr #32
 80002c8:	2000002c 	andcs	r0, r0, ip, lsr #32
 80002cc:	20000004 	andcs	r0, r0, r4
 80002d0:	20000000 	andcs	r0, r0, r0
 80002d4:	20000024 	andcs	r0, r0, r4, lsr #32

080002d8 <SysTick_Handler>:
 80002d8:	b480      	push	{r7}
 80002da:	af00      	add	r7, sp, #0
 80002dc:	4b0d      	ldr	r3, [pc, #52]	; (8000314 <SysTick_Handler+0x3c>)
 80002de:	681b      	ldr	r3, [r3, #0]
 80002e0:	3304      	adds	r3, #4
 80002e2:	4a0c      	ldr	r2, [pc, #48]	; (8000314 <SysTick_Handler+0x3c>)
 80002e4:	6013      	str	r3, [r2, #0]
 80002e6:	4b0b      	ldr	r3, [pc, #44]	; (8000314 <SysTick_Handler+0x3c>)
 80002e8:	681a      	ldr	r2, [r3, #0]
 80002ea:	4b0b      	ldr	r3, [pc, #44]	; (8000318 <SysTick_Handler+0x40>)
 80002ec:	fba3 1302 	umull	r1, r3, r3, r2
 80002f0:	099b      	lsrs	r3, r3, #6
 80002f2:	f44f 717a 	mov.w	r1, #1000	; 0x3e8
 80002f6:	fb01 f303 	mul.w	r3, r1, r3
 80002fa:	1ad3      	subs	r3, r2, r3
 80002fc:	2b00      	cmp	r3, #0
 80002fe:	d104      	bne.n	800030a <SysTick_Handler+0x32>
 8000300:	4b06      	ldr	r3, [pc, #24]	; (800031c <SysTick_Handler+0x44>)
 8000302:	681b      	ldr	r3, [r3, #0]
 8000304:	3301      	adds	r3, #1
 8000306:	4a05      	ldr	r2, [pc, #20]	; (800031c <SysTick_Handler+0x44>)
 8000308:	6013      	str	r3, [r2, #0]
 800030a:	bf00      	nop
 800030c:	46bd      	mov	sp, r7
 800030e:	bc80      	pop	{r7}
 8000310:	4770      	bx	lr
 8000312:	bf00      	nop
 8000314:	2000002c 	andcs	r0, r0, ip, lsr #32
 8000318:	10624dd3 	ldrdne	r4, [r2], #-211	; 0xffffff2d	; <UNPREDICTABLE>
 800031c:	20000028 	andcs	r0, r0, r8, lsr #32

08000320 <main>:
 8000320:	b580      	push	{r7, lr}
 8000322:	af00      	add	r7, sp, #0
 8000324:	f7ff ff30 	bl	8000188 <InitalSetup>
 8000328:	f000 fa3a 	bl	80007a0 <setup>
 800032c:	f000 fa58 	bl	80007e0 <loop>
 8000330:	e7fc      	b.n	800032c <main+0xc>
 8000332:	bf00      	nop

08000334 <ToggleDataCache>:
 8000334:	b580      	push	{r7, lr}
 8000336:	b082      	sub	sp, #8
 8000338:	af00      	add	r7, sp, #0
 800033a:	6078      	str	r0, [r7, #4]
 800033c:	4b05      	ldr	r3, [pc, #20]	; (8000354 <ToggleDataCache+0x20>)
 800033e:	681b      	ldr	r3, [r3, #0]
 8000340:	4618      	mov	r0, r3
 8000342:	6879      	ldr	r1, [r7, #4]
 8000344:	230a      	movs	r3, #10
 8000346:	2201      	movs	r2, #1
 8000348:	f000 f9fa 	bl	8000740 <WriteIntoRegister>
 800034c:	bf00      	nop
 800034e:	3708      	adds	r7, #8
 8000350:	46bd      	mov	sp, r7
 8000352:	bd80      	pop	{r7, pc}
 8000354:	20000020 	andcs	r0, r0, r0, lsr #32

08000358 <ToggleInstructionCache>:
 8000358:	b580      	push	{r7, lr}
 800035a:	b082      	sub	sp, #8
 800035c:	af00      	add	r7, sp, #0
 800035e:	6078      	str	r0, [r7, #4]
 8000360:	4b05      	ldr	r3, [pc, #20]	; (8000378 <ToggleInstructionCache+0x20>)
 8000362:	681b      	ldr	r3, [r3, #0]
 8000364:	4618      	mov	r0, r3
 8000366:	6879      	ldr	r1, [r7, #4]
 8000368:	2309      	movs	r3, #9
 800036a:	2201      	movs	r2, #1
 800036c:	f000 f9e8 	bl	8000740 <WriteIntoRegister>
 8000370:	bf00      	nop
 8000372:	3708      	adds	r7, #8
 8000374:	46bd      	mov	sp, r7
 8000376:	bd80      	pop	{r7, pc}
 8000378:	20000020 	andcs	r0, r0, r0, lsr #32

0800037c <TogglePrefetchBuffer>:
 800037c:	b580      	push	{r7, lr}
 800037e:	b082      	sub	sp, #8
 8000380:	af00      	add	r7, sp, #0
 8000382:	6078      	str	r0, [r7, #4]
 8000384:	4b05      	ldr	r3, [pc, #20]	; (800039c <TogglePrefetchBuffer+0x20>)
 8000386:	681b      	ldr	r3, [r3, #0]
 8000388:	4618      	mov	r0, r3
 800038a:	6879      	ldr	r1, [r7, #4]
 800038c:	2308      	movs	r3, #8
 800038e:	2201      	movs	r2, #1
 8000390:	f000 f9d6 	bl	8000740 <WriteIntoRegister>
 8000394:	bf00      	nop
 8000396:	3708      	adds	r7, #8
 8000398:	46bd      	mov	sp, r7
 800039a:	bd80      	pop	{r7, pc}
 800039c:	20000020 	andcs	r0, r0, r0, lsr #32

080003a0 <SetFlashLatency>:
 80003a0:	b580      	push	{r7, lr}
 80003a2:	b082      	sub	sp, #8
 80003a4:	af00      	add	r7, sp, #0
 80003a6:	4603      	mov	r3, r0
 80003a8:	71fb      	strb	r3, [r7, #7]
 80003aa:	4b06      	ldr	r3, [pc, #24]	; (80003c4 <SetFlashLatency+0x24>)
 80003ac:	681b      	ldr	r3, [r3, #0]
 80003ae:	4618      	mov	r0, r3
 80003b0:	79f9      	ldrb	r1, [r7, #7]
 80003b2:	2300      	movs	r3, #0
 80003b4:	2203      	movs	r2, #3
 80003b6:	f000 f9c3 	bl	8000740 <WriteIntoRegister>
 80003ba:	bf00      	nop
 80003bc:	3708      	adds	r7, #8
 80003be:	46bd      	mov	sp, r7
 80003c0:	bd80      	pop	{r7, pc}
 80003c2:	bf00      	nop
 80003c4:	20000020 	andcs	r0, r0, r0, lsr #32

080003c8 <SetPinMode>:
 80003c8:	b580      	push	{r7, lr}
 80003ca:	b082      	sub	sp, #8
 80003cc:	af00      	add	r7, sp, #0
 80003ce:	6078      	str	r0, [r7, #4]
 80003d0:	460b      	mov	r3, r1
 80003d2:	70fb      	strb	r3, [r7, #3]
 80003d4:	4613      	mov	r3, r2
 80003d6:	70bb      	strb	r3, [r7, #2]
 80003d8:	6878      	ldr	r0, [r7, #4]
 80003da:	78b9      	ldrb	r1, [r7, #2]
 80003dc:	78fb      	ldrb	r3, [r7, #3]
 80003de:	005b      	lsls	r3, r3, #1
 80003e0:	2202      	movs	r2, #2
 80003e2:	f000 f9ad 	bl	8000740 <WriteIntoRegister>
 80003e6:	bf00      	nop
 80003e8:	3708      	adds	r7, #8
 80003ea:	46bd      	mov	sp, r7
 80003ec:	bd80      	pop	{r7, pc}

080003ee <SetPinSpeed>:
 80003ee:	b580      	push	{r7, lr}
 80003f0:	b082      	sub	sp, #8
 80003f2:	af00      	add	r7, sp, #0
 80003f4:	6078      	str	r0, [r7, #4]
 80003f6:	460b      	mov	r3, r1
 80003f8:	70fb      	strb	r3, [r7, #3]
 80003fa:	4613      	mov	r3, r2
 80003fc:	70bb      	strb	r3, [r7, #2]
 80003fe:	687b      	ldr	r3, [r7, #4]
 8000400:	f103 0008 	add.w	r0, r3, #8
 8000404:	78b9      	ldrb	r1, [r7, #2]
 8000406:	78fb      	ldrb	r3, [r7, #3]
 8000408:	005b      	lsls	r3, r3, #1
 800040a:	2202      	movs	r2, #2
 800040c:	f000 f998 	bl	8000740 <WriteIntoRegister>
 8000410:	bf00      	nop
 8000412:	3708      	adds	r7, #8
 8000414:	46bd      	mov	sp, r7
 8000416:	bd80      	pop	{r7, pc}

08000418 <SetPullUpPullDown>:
 8000418:	b580      	push	{r7, lr}
 800041a:	b082      	sub	sp, #8
 800041c:	af00      	add	r7, sp, #0
 800041e:	6078      	str	r0, [r7, #4]
 8000420:	460b      	mov	r3, r1
 8000422:	70fb      	strb	r3, [r7, #3]
 8000424:	4613      	mov	r3, r2
 8000426:	70bb      	strb	r3, [r7, #2]
 8000428:	687b      	ldr	r3, [r7, #4]
 800042a:	f103 000c 	add.w	r0, r3, #12
 800042e:	78b9      	ldrb	r1, [r7, #2]
 8000430:	78fb      	ldrb	r3, [r7, #3]
 8000432:	005b      	lsls	r3, r3, #1
 8000434:	2202      	movs	r2, #2
 8000436:	f000 f983 	bl	8000740 <WriteIntoRegister>
 800043a:	bf00      	nop
 800043c:	3708      	adds	r7, #8
 800043e:	46bd      	mov	sp, r7
 8000440:	bd80      	pop	{r7, pc}

08000442 <TogglePin>:
 8000442:	b580      	push	{r7, lr}
 8000444:	b084      	sub	sp, #16
 8000446:	af00      	add	r7, sp, #0
 8000448:	60f8      	str	r0, [r7, #12]
 800044a:	460b      	mov	r3, r1
 800044c:	607a      	str	r2, [r7, #4]
 800044e:	72fb      	strb	r3, [r7, #11]
 8000450:	68fb      	ldr	r3, [r7, #12]
 8000452:	f103 0014 	add.w	r0, r3, #20
 8000456:	6879      	ldr	r1, [r7, #4]
 8000458:	7afb      	ldrb	r3, [r7, #11]
 800045a:	2201      	movs	r2, #1
 800045c:	f000 f970 	bl	8000740 <WriteIntoRegister>
 8000460:	bf00      	nop
 8000462:	3710      	adds	r7, #16
 8000464:	46bd      	mov	sp, r7
 8000466:	bd80      	pop	{r7, pc}

08000468 <SetVoltageRegulatorScale>:
 8000468:	b580      	push	{r7, lr}
 800046a:	b082      	sub	sp, #8
 800046c:	af00      	add	r7, sp, #0
 800046e:	4603      	mov	r3, r0
 8000470:	71fb      	strb	r3, [r7, #7]
 8000472:	4b06      	ldr	r3, [pc, #24]	; (800048c <SetVoltageRegulatorScale+0x24>)
 8000474:	681b      	ldr	r3, [r3, #0]
 8000476:	4618      	mov	r0, r3
 8000478:	79f9      	ldrb	r1, [r7, #7]
 800047a:	2309      	movs	r3, #9
 800047c:	2202      	movs	r2, #2
 800047e:	f000 f95f 	bl	8000740 <WriteIntoRegister>
 8000482:	bf00      	nop
 8000484:	3708      	adds	r7, #8
 8000486:	46bd      	mov	sp, r7
 8000488:	bd80      	pop	{r7, pc}
 800048a:	bf00      	nop
 800048c:	2000001c 	andcs	r0, r0, ip, lsl r0

08000490 <SetSystemClockSource>:
 8000490:	b580      	push	{r7, lr}
 8000492:	b082      	sub	sp, #8
 8000494:	af00      	add	r7, sp, #0
 8000496:	4603      	mov	r3, r0
 8000498:	71fb      	strb	r3, [r7, #7]
 800049a:	4b0b      	ldr	r3, [pc, #44]	; (80004c8 <SetSystemClockSource+0x38>)
 800049c:	681b      	ldr	r3, [r3, #0]
 800049e:	f103 0008 	add.w	r0, r3, #8
 80004a2:	79f9      	ldrb	r1, [r7, #7]
 80004a4:	2300      	movs	r3, #0
 80004a6:	2202      	movs	r2, #2
 80004a8:	f000 f94a 	bl	8000740 <WriteIntoRegister>
 80004ac:	bf00      	nop
 80004ae:	4b06      	ldr	r3, [pc, #24]	; (80004c8 <SetSystemClockSource+0x38>)
 80004b0:	681b      	ldr	r3, [r3, #0]
 80004b2:	689a      	ldr	r2, [r3, #8]
 80004b4:	79fb      	ldrb	r3, [r7, #7]
 80004b6:	4013      	ands	r3, r2
 80004b8:	2b00      	cmp	r3, #0
 80004ba:	d0f8      	beq.n	80004ae <SetSystemClockSource+0x1e>
 80004bc:	bf00      	nop
 80004be:	bf00      	nop
 80004c0:	3708      	adds	r7, #8
 80004c2:	46bd      	mov	sp, r7
 80004c4:	bd80      	pop	{r7, pc}
 80004c6:	bf00      	nop
 80004c8:	20000000 	andcs	r0, r0, r0

080004cc <ToggleMSI>:
 80004cc:	b580      	push	{r7, lr}
 80004ce:	b082      	sub	sp, #8
 80004d0:	af00      	add	r7, sp, #0
 80004d2:	6078      	str	r0, [r7, #4]
 80004d4:	4b0a      	ldr	r3, [pc, #40]	; (8000500 <ToggleMSI+0x34>)
 80004d6:	681b      	ldr	r3, [r3, #0]
 80004d8:	4618      	mov	r0, r3
 80004da:	6879      	ldr	r1, [r7, #4]
 80004dc:	2300      	movs	r3, #0
 80004de:	2201      	movs	r2, #1
 80004e0:	f000 f92e 	bl	8000740 <WriteIntoRegister>
 80004e4:	bf00      	nop
 80004e6:	4b06      	ldr	r3, [pc, #24]	; (8000500 <ToggleMSI+0x34>)
 80004e8:	681b      	ldr	r3, [r3, #0]
 80004ea:	681b      	ldr	r3, [r3, #0]
 80004ec:	687a      	ldr	r2, [r7, #4]
 80004ee:	0052      	lsls	r2, r2, #1
 80004f0:	4013      	ands	r3, r2
 80004f2:	2b00      	cmp	r3, #0
 80004f4:	d0f7      	beq.n	80004e6 <ToggleMSI+0x1a>
 80004f6:	bf00      	nop
 80004f8:	bf00      	nop
 80004fa:	3708      	adds	r7, #8
 80004fc:	46bd      	mov	sp, r7
 80004fe:	bd80      	pop	{r7, pc}
 8000500:	20000000 	andcs	r0, r0, r0

08000504 <ToggleHSI>:
 8000504:	b580      	push	{r7, lr}
 8000506:	b082      	sub	sp, #8
 8000508:	af00      	add	r7, sp, #0
 800050a:	6078      	str	r0, [r7, #4]
 800050c:	4b0a      	ldr	r3, [pc, #40]	; (8000538 <ToggleHSI+0x34>)
 800050e:	681b      	ldr	r3, [r3, #0]
 8000510:	4618      	mov	r0, r3
 8000512:	6879      	ldr	r1, [r7, #4]
 8000514:	2308      	movs	r3, #8
 8000516:	2201      	movs	r2, #1
 8000518:	f000 f912 	bl	8000740 <WriteIntoRegister>
 800051c:	bf00      	nop
 800051e:	4b06      	ldr	r3, [pc, #24]	; (8000538 <ToggleHSI+0x34>)
 8000520:	681b      	ldr	r3, [r3, #0]
 8000522:	681b      	ldr	r3, [r3, #0]
 8000524:	687a      	ldr	r2, [r7, #4]
 8000526:	0292      	lsls	r2, r2, #10
 8000528:	4013      	ands	r3, r2
 800052a:	2b00      	cmp	r3, #0
 800052c:	d0f7      	beq.n	800051e <ToggleHSI+0x1a>
 800052e:	bf00      	nop
 8000530:	bf00      	nop
 8000532:	3708      	adds	r7, #8
 8000534:	46bd      	mov	sp, r7
 8000536:	bd80      	pop	{r7, pc}
 8000538:	20000000 	andcs	r0, r0, r0

0800053c <ToggleHSE>:
 800053c:	b580      	push	{r7, lr}
 800053e:	b082      	sub	sp, #8
 8000540:	af00      	add	r7, sp, #0
 8000542:	6078      	str	r0, [r7, #4]
 8000544:	4b0a      	ldr	r3, [pc, #40]	; (8000570 <ToggleHSE+0x34>)
 8000546:	681b      	ldr	r3, [r3, #0]
 8000548:	4618      	mov	r0, r3
 800054a:	6879      	ldr	r1, [r7, #4]
 800054c:	2310      	movs	r3, #16
 800054e:	2201      	movs	r2, #1
 8000550:	f000 f8f6 	bl	8000740 <WriteIntoRegister>
 8000554:	bf00      	nop
 8000556:	4b06      	ldr	r3, [pc, #24]	; (8000570 <ToggleHSE+0x34>)
 8000558:	681b      	ldr	r3, [r3, #0]
 800055a:	681b      	ldr	r3, [r3, #0]
 800055c:	687a      	ldr	r2, [r7, #4]
 800055e:	0452      	lsls	r2, r2, #17
 8000560:	4013      	ands	r3, r2
 8000562:	2b00      	cmp	r3, #0
 8000564:	d0f7      	beq.n	8000556 <ToggleHSE+0x1a>
 8000566:	bf00      	nop
 8000568:	bf00      	nop
 800056a:	3708      	adds	r7, #8
 800056c:	46bd      	mov	sp, r7
 800056e:	bd80      	pop	{r7, pc}
 8000570:	20000000 	andcs	r0, r0, r0

08000574 <TogglePLL>:
 8000574:	b580      	push	{r7, lr}
 8000576:	b082      	sub	sp, #8
 8000578:	af00      	add	r7, sp, #0
 800057a:	6078      	str	r0, [r7, #4]
 800057c:	4b0a      	ldr	r3, [pc, #40]	; (80005a8 <TogglePLL+0x34>)
 800057e:	681b      	ldr	r3, [r3, #0]
 8000580:	4618      	mov	r0, r3
 8000582:	6879      	ldr	r1, [r7, #4]
 8000584:	2318      	movs	r3, #24
 8000586:	2201      	movs	r2, #1
 8000588:	f000 f8da 	bl	8000740 <WriteIntoRegister>
 800058c:	bf00      	nop
 800058e:	4b06      	ldr	r3, [pc, #24]	; (80005a8 <TogglePLL+0x34>)
 8000590:	681b      	ldr	r3, [r3, #0]
 8000592:	681b      	ldr	r3, [r3, #0]
 8000594:	687a      	ldr	r2, [r7, #4]
 8000596:	0652      	lsls	r2, r2, #25
 8000598:	4013      	ands	r3, r2
 800059a:	2b00      	cmp	r3, #0
 800059c:	d0f7      	beq.n	800058e <TogglePLL+0x1a>
 800059e:	bf00      	nop
 80005a0:	bf00      	nop
 80005a2:	3708      	adds	r7, #8
 80005a4:	46bd      	mov	sp, r7
 80005a6:	bd80      	pop	{r7, pc}
 80005a8:	20000000 	andcs	r0, r0, r0

080005ac <SetAHBPrescaler>:
 80005ac:	b580      	push	{r7, lr}
 80005ae:	b082      	sub	sp, #8
 80005b0:	af00      	add	r7, sp, #0
 80005b2:	4603      	mov	r3, r0
 80005b4:	71fb      	strb	r3, [r7, #7]
 80005b6:	4b06      	ldr	r3, [pc, #24]	; (80005d0 <SetAHBPrescaler+0x24>)
 80005b8:	681b      	ldr	r3, [r3, #0]
 80005ba:	f103 0008 	add.w	r0, r3, #8
 80005be:	79f9      	ldrb	r1, [r7, #7]
 80005c0:	2304      	movs	r3, #4
 80005c2:	2204      	movs	r2, #4
 80005c4:	f000 f8bc 	bl	8000740 <WriteIntoRegister>
 80005c8:	bf00      	nop
 80005ca:	3708      	adds	r7, #8
 80005cc:	46bd      	mov	sp, r7
 80005ce:	bd80      	pop	{r7, pc}
 80005d0:	20000000 	andcs	r0, r0, r0

080005d4 <SetAPB1Prescaler>:
 80005d4:	b580      	push	{r7, lr}
 80005d6:	b082      	sub	sp, #8
 80005d8:	af00      	add	r7, sp, #0
 80005da:	4603      	mov	r3, r0
 80005dc:	71fb      	strb	r3, [r7, #7]
 80005de:	4b06      	ldr	r3, [pc, #24]	; (80005f8 <SetAPB1Prescaler+0x24>)
 80005e0:	681b      	ldr	r3, [r3, #0]
 80005e2:	f103 0008 	add.w	r0, r3, #8
 80005e6:	79f9      	ldrb	r1, [r7, #7]
 80005e8:	2308      	movs	r3, #8
 80005ea:	2203      	movs	r2, #3
 80005ec:	f000 f8a8 	bl	8000740 <WriteIntoRegister>
 80005f0:	bf00      	nop
 80005f2:	3708      	adds	r7, #8
 80005f4:	46bd      	mov	sp, r7
 80005f6:	bd80      	pop	{r7, pc}
 80005f8:	20000000 	andcs	r0, r0, r0

080005fc <SetAPB2Prescaler>:
 80005fc:	b580      	push	{r7, lr}
 80005fe:	b082      	sub	sp, #8
 8000600:	af00      	add	r7, sp, #0
 8000602:	4603      	mov	r3, r0
 8000604:	71fb      	strb	r3, [r7, #7]
 8000606:	4b06      	ldr	r3, [pc, #24]	; (8000620 <SetAPB2Prescaler+0x24>)
 8000608:	681b      	ldr	r3, [r3, #0]
 800060a:	f103 0008 	add.w	r0, r3, #8
 800060e:	79f9      	ldrb	r1, [r7, #7]
 8000610:	230b      	movs	r3, #11
 8000612:	2203      	movs	r2, #3
 8000614:	f000 f894 	bl	8000740 <WriteIntoRegister>
 8000618:	bf00      	nop
 800061a:	3708      	adds	r7, #8
 800061c:	46bd      	mov	sp, r7
 800061e:	bd80      	pop	{r7, pc}
 8000620:	20000000 	andcs	r0, r0, r0

08000624 <TogglePLLOutput>:
 8000624:	b580      	push	{r7, lr}
 8000626:	b082      	sub	sp, #8
 8000628:	af00      	add	r7, sp, #0
 800062a:	6078      	str	r0, [r7, #4]
 800062c:	4b06      	ldr	r3, [pc, #24]	; (8000648 <TogglePLLOutput+0x24>)
 800062e:	681b      	ldr	r3, [r3, #0]
 8000630:	f103 000c 	add.w	r0, r3, #12
 8000634:	6879      	ldr	r1, [r7, #4]
 8000636:	2318      	movs	r3, #24
 8000638:	2201      	movs	r2, #1
 800063a:	f000 f881 	bl	8000740 <WriteIntoRegister>
 800063e:	bf00      	nop
 8000640:	3708      	adds	r7, #8
 8000642:	46bd      	mov	sp, r7
 8000644:	bd80      	pop	{r7, pc}
 8000646:	bf00      	nop
 8000648:	20000000 	andcs	r0, r0, r0

0800064c <SetPLLSource>:
 800064c:	b580      	push	{r7, lr}
 800064e:	b082      	sub	sp, #8
 8000650:	af00      	add	r7, sp, #0
 8000652:	4603      	mov	r3, r0
 8000654:	71fb      	strb	r3, [r7, #7]
 8000656:	4b06      	ldr	r3, [pc, #24]	; (8000670 <SetPLLSource+0x24>)
 8000658:	681b      	ldr	r3, [r3, #0]
 800065a:	f103 000c 	add.w	r0, r3, #12
 800065e:	79f9      	ldrb	r1, [r7, #7]
 8000660:	2300      	movs	r3, #0
 8000662:	2202      	movs	r2, #2
 8000664:	f000 f86c 	bl	8000740 <WriteIntoRegister>
 8000668:	bf00      	nop
 800066a:	3708      	adds	r7, #8
 800066c:	46bd      	mov	sp, r7
 800066e:	bd80      	pop	{r7, pc}
 8000670:	20000000 	andcs	r0, r0, r0

08000674 <SetPLLM>:
 8000674:	b580      	push	{r7, lr}
 8000676:	b082      	sub	sp, #8
 8000678:	af00      	add	r7, sp, #0
 800067a:	4603      	mov	r3, r0
 800067c:	71fb      	strb	r3, [r7, #7]
 800067e:	4b06      	ldr	r3, [pc, #24]	; (8000698 <SetPLLM+0x24>)
 8000680:	681b      	ldr	r3, [r3, #0]
 8000682:	f103 000c 	add.w	r0, r3, #12
 8000686:	79f9      	ldrb	r1, [r7, #7]
 8000688:	2304      	movs	r3, #4
 800068a:	2203      	movs	r2, #3
 800068c:	f000 f858 	bl	8000740 <WriteIntoRegister>
 8000690:	bf00      	nop
 8000692:	3708      	adds	r7, #8
 8000694:	46bd      	mov	sp, r7
 8000696:	bd80      	pop	{r7, pc}
 8000698:	20000000 	andcs	r0, r0, r0

0800069c <SetPLLN>:
 800069c:	b580      	push	{r7, lr}
 800069e:	b082      	sub	sp, #8
 80006a0:	af00      	add	r7, sp, #0
 80006a2:	4603      	mov	r3, r0
 80006a4:	71fb      	strb	r3, [r7, #7]
 80006a6:	4b06      	ldr	r3, [pc, #24]	; (80006c0 <SetPLLN+0x24>)
 80006a8:	681b      	ldr	r3, [r3, #0]
 80006aa:	f103 000c 	add.w	r0, r3, #12
 80006ae:	79f9      	ldrb	r1, [r7, #7]
 80006b0:	2308      	movs	r3, #8
 80006b2:	2207      	movs	r2, #7
 80006b4:	f000 f844 	bl	8000740 <WriteIntoRegister>
 80006b8:	bf00      	nop
 80006ba:	3708      	adds	r7, #8
 80006bc:	46bd      	mov	sp, r7
 80006be:	bd80      	pop	{r7, pc}
 80006c0:	20000000 	andcs	r0, r0, r0

080006c4 <SetPLLR>:
 80006c4:	b580      	push	{r7, lr}
 80006c6:	b082      	sub	sp, #8
 80006c8:	af00      	add	r7, sp, #0
 80006ca:	4603      	mov	r3, r0
 80006cc:	71fb      	strb	r3, [r7, #7]
 80006ce:	4b06      	ldr	r3, [pc, #24]	; (80006e8 <SetPLLR+0x24>)
 80006d0:	681b      	ldr	r3, [r3, #0]
 80006d2:	f103 000c 	add.w	r0, r3, #12
 80006d6:	79f9      	ldrb	r1, [r7, #7]
 80006d8:	2319      	movs	r3, #25
 80006da:	2202      	movs	r2, #2
 80006dc:	f000 f830 	bl	8000740 <WriteIntoRegister>
 80006e0:	bf00      	nop
 80006e2:	3708      	adds	r7, #8
 80006e4:	46bd      	mov	sp, r7
 80006e6:	bd80      	pop	{r7, pc}
 80006e8:	20000000 	andcs	r0, r0, r0

080006ec <TogglePowerInterfaceClock>:
 80006ec:	b580      	push	{r7, lr}
 80006ee:	b082      	sub	sp, #8
 80006f0:	af00      	add	r7, sp, #0
 80006f2:	6078      	str	r0, [r7, #4]
 80006f4:	4b06      	ldr	r3, [pc, #24]	; (8000710 <TogglePowerInterfaceClock+0x24>)
 80006f6:	681b      	ldr	r3, [r3, #0]
 80006f8:	f103 0058 	add.w	r0, r3, #88	; 0x58
 80006fc:	6879      	ldr	r1, [r7, #4]
 80006fe:	231c      	movs	r3, #28
 8000700:	2201      	movs	r2, #1
 8000702:	f000 f81d 	bl	8000740 <WriteIntoRegister>
 8000706:	bf00      	nop
 8000708:	3708      	adds	r7, #8
 800070a:	46bd      	mov	sp, r7
 800070c:	bd80      	pop	{r7, pc}
 800070e:	bf00      	nop
 8000710:	20000000 	andcs	r0, r0, r0

08000714 <ToggleGpioClock>:
 8000714:	b580      	push	{r7, lr}
 8000716:	b082      	sub	sp, #8
 8000718:	af00      	add	r7, sp, #0
 800071a:	4603      	mov	r3, r0
 800071c:	6039      	str	r1, [r7, #0]
 800071e:	71fb      	strb	r3, [r7, #7]
 8000720:	4b06      	ldr	r3, [pc, #24]	; (800073c <ToggleGpioClock+0x28>)
 8000722:	681b      	ldr	r3, [r3, #0]
 8000724:	f103 004c 	add.w	r0, r3, #76	; 0x4c
 8000728:	6839      	ldr	r1, [r7, #0]
 800072a:	79fb      	ldrb	r3, [r7, #7]
 800072c:	2201      	movs	r2, #1
 800072e:	f000 f807 	bl	8000740 <WriteIntoRegister>
 8000732:	bf00      	nop
 8000734:	3708      	adds	r7, #8
 8000736:	46bd      	mov	sp, r7
 8000738:	bd80      	pop	{r7, pc}
 800073a:	bf00      	nop
 800073c:	20000000 	andcs	r0, r0, r0

08000740 <WriteIntoRegister>:
 8000740:	b480      	push	{r7}
 8000742:	b087      	sub	sp, #28
 8000744:	af00      	add	r7, sp, #0
 8000746:	60f8      	str	r0, [r7, #12]
 8000748:	60b9      	str	r1, [r7, #8]
 800074a:	607a      	str	r2, [r7, #4]
 800074c:	603b      	str	r3, [r7, #0]
 800074e:	2300      	movs	r3, #0
 8000750:	617b      	str	r3, [r7, #20]
 8000752:	2300      	movs	r3, #0
 8000754:	613b      	str	r3, [r7, #16]
 8000756:	e007      	b.n	8000768 <WriteIntoRegister+0x28>
 8000758:	697b      	ldr	r3, [r7, #20]
 800075a:	005b      	lsls	r3, r3, #1
 800075c:	f043 0301 	orr.w	r3, r3, #1
 8000760:	617b      	str	r3, [r7, #20]
 8000762:	693b      	ldr	r3, [r7, #16]
 8000764:	3301      	adds	r3, #1
 8000766:	613b      	str	r3, [r7, #16]
 8000768:	693b      	ldr	r3, [r7, #16]
 800076a:	687a      	ldr	r2, [r7, #4]
 800076c:	429a      	cmp	r2, r3
 800076e:	d8f3      	bhi.n	8000758 <WriteIntoRegister+0x18>
 8000770:	68fb      	ldr	r3, [r7, #12]
 8000772:	681a      	ldr	r2, [r3, #0]
 8000774:	6979      	ldr	r1, [r7, #20]
 8000776:	683b      	ldr	r3, [r7, #0]
 8000778:	fa01 f303 	lsl.w	r3, r1, r3
 800077c:	43db      	mvns	r3, r3
 800077e:	401a      	ands	r2, r3
 8000780:	68fb      	ldr	r3, [r7, #12]
 8000782:	601a      	str	r2, [r3, #0]
 8000784:	68fb      	ldr	r3, [r7, #12]
 8000786:	681a      	ldr	r2, [r3, #0]
 8000788:	68b9      	ldr	r1, [r7, #8]
 800078a:	683b      	ldr	r3, [r7, #0]
 800078c:	fa01 f303 	lsl.w	r3, r1, r3
 8000790:	431a      	orrs	r2, r3
 8000792:	68fb      	ldr	r3, [r7, #12]
 8000794:	601a      	str	r2, [r3, #0]
 8000796:	bf00      	nop
 8000798:	371c      	adds	r7, #28
 800079a:	46bd      	mov	sp, r7
 800079c:	bc80      	pop	{r7}
 800079e:	4770      	bx	lr

080007a0 <setup>:
 80007a0:	b580      	push	{r7, lr}
 80007a2:	af00      	add	r7, sp, #0
 80007a4:	4b0c      	ldr	r3, [pc, #48]	; (80007d8 <setup+0x38>)
 80007a6:	2200      	movs	r2, #0
 80007a8:	601a      	str	r2, [r3, #0]
 80007aa:	4b0c      	ldr	r3, [pc, #48]	; (80007dc <setup+0x3c>)
 80007ac:	681b      	ldr	r3, [r3, #0]
 80007ae:	2201      	movs	r2, #1
 80007b0:	210d      	movs	r1, #13
 80007b2:	4618      	mov	r0, r3
 80007b4:	f7ff fe08 	bl	80003c8 <SetPinMode>
 80007b8:	4b08      	ldr	r3, [pc, #32]	; (80007dc <setup+0x3c>)
 80007ba:	681b      	ldr	r3, [r3, #0]
 80007bc:	2201      	movs	r2, #1
 80007be:	210d      	movs	r1, #13
 80007c0:	4618      	mov	r0, r3
 80007c2:	f7ff fe14 	bl	80003ee <SetPinSpeed>
 80007c6:	4b05      	ldr	r3, [pc, #20]	; (80007dc <setup+0x3c>)
 80007c8:	681b      	ldr	r3, [r3, #0]
 80007ca:	2200      	movs	r2, #0
 80007cc:	210d      	movs	r1, #13
 80007ce:	4618      	mov	r0, r3
 80007d0:	f7ff fe22 	bl	8000418 <SetPullUpPullDown>
 80007d4:	bf00      	nop
 80007d6:	bd80      	pop	{r7, pc}
 80007d8:	20000030 	andcs	r0, r0, r0, lsr r0
 80007dc:	20000008 	andcs	r0, r0, r8

080007e0 <loop>:
 80007e0:	b580      	push	{r7, lr}
 80007e2:	af00      	add	r7, sp, #0
 80007e4:	4b13      	ldr	r3, [pc, #76]	; (8000834 <loop+0x54>)
 80007e6:	681a      	ldr	r2, [r3, #0]
 80007e8:	4b13      	ldr	r3, [pc, #76]	; (8000838 <loop+0x58>)
 80007ea:	681b      	ldr	r3, [r3, #0]
 80007ec:	1ad3      	subs	r3, r2, r3
 80007ee:	f5b3 7ffa 	cmp.w	r3, #500	; 0x1f4
 80007f2:	d31c      	bcc.n	800082e <loop+0x4e>
 80007f4:	4b0f      	ldr	r3, [pc, #60]	; (8000834 <loop+0x54>)
 80007f6:	681b      	ldr	r3, [r3, #0]
 80007f8:	4a0f      	ldr	r2, [pc, #60]	; (8000838 <loop+0x58>)
 80007fa:	6013      	str	r3, [r2, #0]
 80007fc:	4b0f      	ldr	r3, [pc, #60]	; (800083c <loop+0x5c>)
 80007fe:	681b      	ldr	r3, [r3, #0]
 8000800:	2b01      	cmp	r3, #1
 8000802:	d10a      	bne.n	800081a <loop+0x3a>
 8000804:	4b0e      	ldr	r3, [pc, #56]	; (8000840 <loop+0x60>)
 8000806:	681b      	ldr	r3, [r3, #0]
 8000808:	2200      	movs	r2, #0
 800080a:	210d      	movs	r1, #13
 800080c:	4618      	mov	r0, r3
 800080e:	f7ff fe18 	bl	8000442 <TogglePin>
 8000812:	4b0a      	ldr	r3, [pc, #40]	; (800083c <loop+0x5c>)
 8000814:	2200      	movs	r2, #0
 8000816:	601a      	str	r2, [r3, #0]
 8000818:	e009      	b.n	800082e <loop+0x4e>
 800081a:	4b09      	ldr	r3, [pc, #36]	; (8000840 <loop+0x60>)
 800081c:	681b      	ldr	r3, [r3, #0]
 800081e:	2201      	movs	r2, #1
 8000820:	210d      	movs	r1, #13
 8000822:	4618      	mov	r0, r3
 8000824:	f7ff fe0d 	bl	8000442 <TogglePin>
 8000828:	4b04      	ldr	r3, [pc, #16]	; (800083c <loop+0x5c>)
 800082a:	2201      	movs	r2, #1
 800082c:	601a      	str	r2, [r3, #0]
 800082e:	bf00      	nop
 8000830:	bd80      	pop	{r7, pc}
 8000832:	bf00      	nop
 8000834:	20000028 	andcs	r0, r0, r8, lsr #32
 8000838:	20000034 	andcs	r0, r0, r4, lsr r0
 800083c:	20000030 	andcs	r0, r0, r0, lsr r0
 8000840:	20000008 	andcs	r0, r0, r8

08000844 <Common_Handler>:
 8000844:	b480      	push	{r7}
 8000846:	af00      	add	r7, sp, #0
 8000848:	e7fe      	b.n	8000848 <Common_Handler+0x4>

0800084a <Reset_Handler>:
 800084a:	b580      	push	{r7, lr}
 800084c:	b086      	sub	sp, #24
 800084e:	af00      	add	r7, sp, #0
 8000850:	4a1b      	ldr	r2, [pc, #108]	; (80008c0 <Reset_Handler+0x76>)
 8000852:	4b1c      	ldr	r3, [pc, #112]	; (80008c4 <Reset_Handler+0x7a>)
 8000854:	1ad3      	subs	r3, r2, r3
 8000856:	109b      	asrs	r3, r3, #2
 8000858:	607b      	str	r3, [r7, #4]
 800085a:	4b1a      	ldr	r3, [pc, #104]	; (80008c4 <Reset_Handler+0x7a>)
 800085c:	617b      	str	r3, [r7, #20]
 800085e:	4b1a      	ldr	r3, [pc, #104]	; (80008c8 <Reset_Handler+0x7e>)
 8000860:	613b      	str	r3, [r7, #16]
 8000862:	2300      	movs	r3, #0
 8000864:	60fb      	str	r3, [r7, #12]
 8000866:	e00a      	b.n	800087e <Reset_Handler+0x34>
 8000868:	693a      	ldr	r2, [r7, #16]
 800086a:	1c53      	adds	r3, r2, #1
 800086c:	613b      	str	r3, [r7, #16]
 800086e:	697b      	ldr	r3, [r7, #20]
 8000870:	1c59      	adds	r1, r3, #1
 8000872:	6179      	str	r1, [r7, #20]
 8000874:	7812      	ldrb	r2, [r2, #0]
 8000876:	701a      	strb	r2, [r3, #0]
 8000878:	68fb      	ldr	r3, [r7, #12]
 800087a:	3301      	adds	r3, #1
 800087c:	60fb      	str	r3, [r7, #12]
 800087e:	68fa      	ldr	r2, [r7, #12]
 8000880:	687b      	ldr	r3, [r7, #4]
 8000882:	429a      	cmp	r2, r3
 8000884:	d3f0      	bcc.n	8000868 <Reset_Handler+0x1e>
 8000886:	4a11      	ldr	r2, [pc, #68]	; (80008cc <Reset_Handler+0x82>)
 8000888:	4b11      	ldr	r3, [pc, #68]	; (80008d0 <Reset_Handler+0x86>)
 800088a:	1ad3      	subs	r3, r2, r3
 800088c:	109b      	asrs	r3, r3, #2
 800088e:	607b      	str	r3, [r7, #4]
 8000890:	4b0f      	ldr	r3, [pc, #60]	; (80008d0 <Reset_Handler+0x86>)
 8000892:	617b      	str	r3, [r7, #20]
 8000894:	2300      	movs	r3, #0
 8000896:	60bb      	str	r3, [r7, #8]
 8000898:	e007      	b.n	80008aa <Reset_Handler+0x60>
 800089a:	697b      	ldr	r3, [r7, #20]
 800089c:	1c5a      	adds	r2, r3, #1
 800089e:	617a      	str	r2, [r7, #20]
 80008a0:	2200      	movs	r2, #0
 80008a2:	701a      	strb	r2, [r3, #0]
 80008a4:	68bb      	ldr	r3, [r7, #8]
 80008a6:	3301      	adds	r3, #1
 80008a8:	60bb      	str	r3, [r7, #8]
 80008aa:	68ba      	ldr	r2, [r7, #8]
 80008ac:	687b      	ldr	r3, [r7, #4]
 80008ae:	429a      	cmp	r2, r3
 80008b0:	d3f3      	bcc.n	800089a <Reset_Handler+0x50>
 80008b2:	f7ff fd35 	bl	8000320 <main>
 80008b6:	bf00      	nop
 80008b8:	3718      	adds	r7, #24
 80008ba:	46bd      	mov	sp, r7
 80008bc:	bd80      	pop	{r7, pc}
 80008be:	bf00      	nop
 80008c0:	20000000 	andcs	r0, r0, r0
 80008c4:	20000000 	andcs	r0, r0, r0
 80008c8:	080008d4 	stmdaeq	r0, {r2, r4, r6, r7, fp}
 80008cc:	20000038 	andcs	r0, r0, r8, lsr r0
 80008d0:	20000028 	andcs	r0, r0, r8, lsr #32

Disassembly of section .data:

20000000 <RCC>:
20000000:	40021000 	andmi	r1, r2, r0

20000004 <GPIOA>:
20000004:	48000000 	stmdami	r0, {}	; <UNPREDICTABLE>

20000008 <GPIOB>:
20000008:	48000400 	stmdami	r0, {sl}

2000000c <GPIOC>:
2000000c:	48000800 	stmdami	r0, {fp}

20000010 <GPIOD>:
20000010:	48000c00 	stmdami	r0, {sl, fp}

20000014 <GPIOE>:
20000014:	48001000 	stmdami	r0, {ip}

20000018 <GPIOH>:
20000018:	48001c00 	stmdami	r0, {sl, fp, ip}

2000001c <PWR>:
2000001c:	40007000 	andmi	r7, r0, r0

20000020 <FLASH>:
20000020:	40022000 	andmi	r2, r2, r0

20000024 <STK>:
20000024:	e000e010 	and	lr, r0, r0, lsl r0

Disassembly of section .bss:

20000028 <milli_ticks>:
20000028:	00000000 	andeq	r0, r0, r0

2000002c <micro_ticks>:
2000002c:	00000000 	andeq	r0, r0, r0

20000030 <lastState>:
20000030:	00000000 	andeq	r0, r0, r0

20000034 <ulTime.0>:
20000034:	00000000 	andeq	r0, r0, r0

Disassembly of section .debug_info:

00000000 <.debug_info>:
       0:	00000859 	andeq	r0, r0, r9, asr r8
       4:	00000004 	andeq	r0, r0, r4
       8:	01040000 	mrseq	r0, (UNDEF: 4)
       c:	00000311 	andeq	r0, r0, r1, lsl r3
      10:	00003b0c 	andeq	r3, r0, ip, lsl #22
      14:	00090000 	andeq	r0, r9, r0
      18:	00018800 	andeq	r8, r1, r0, lsl #16
      1c:	0001aa08 	andeq	sl, r1, r8, lsl #20
      20:	00000000 	andeq	r0, r0, r0
      24:	06010200 	streq	r0, [r1], -r0, lsl #4
      28:	000008c7 	andeq	r0, r0, r7, asr #17
      2c:	c5080102 	strgt	r0, [r8, #-258]	; 0xfffffefe
      30:	02000008 	andeq	r0, r0, #8
      34:	09220502 	stmdbeq	r2!, {r1, r8, sl}
      38:	02020000 	andeq	r0, r2, #0
      3c:	00055107 	andeq	r5, r5, r7, lsl #2
      40:	05040200 	streq	r0, [r4, #-512]	; 0xfffffe00
      44:	000001f4 	strdeq	r0, [r0], -r4
      48:	00039b03 	andeq	r9, r3, r3, lsl #22
      4c:	194f0200 	stmdbne	pc, {r9}^	; <UNPREDICTABLE>
      50:	00000054 	andeq	r0, r0, r4, asr r0
      54:	a1070402 	tstge	r7, r2, lsl #8
      58:	02000001 	andeq	r0, r0, #1
      5c:	01ef0508 	mvneq	r0, r8, lsl #10
      60:	08020000 	stmdaeq	r2, {}	; <UNPREDICTABLE>
      64:	00019c07 	andeq	r9, r1, r7, lsl #24
      68:	05040400 	streq	r0, [r4, #-1024]	; 0xfffffc00
      6c:	00746e69 	rsbseq	r6, r4, r9, ror #28
      70:	a6070402 	strge	r0, [r7], -r2, lsl #8
      74:	03000001 	movweq	r0, #1
      78:	0000039d 	muleq	r0, sp, r3
      7c:	48143003 	ldmdami	r4, {r0, r1, ip, sp}
      80:	05000000 	streq	r0, [r0, #-0]
      84:	00000077 	andeq	r0, r0, r7, ror r0
      88:	2c010706 	stccs	7, cr0, [r1], {6}
      8c:	04000000 	streq	r0, [r0], #-0
      90:	00af0115 	adceq	r0, pc, r5, lsl r1	; <UNPREDICTABLE>
      94:	74070000 	strvc	r0, [r7], #-0
      98:	00000005 	andeq	r0, r0, r5
      9c:	00016407 	andeq	r6, r1, r7, lsl #8
      a0:	a7070100 	strge	r0, [r7, -r0, lsl #2]
      a4:	02000007 	andeq	r0, r0, #7
      a8:	0005e407 	andeq	lr, r5, r7, lsl #8
      ac:	06000300 	streq	r0, [r0], -r0, lsl #6
      b0:	002c0107 	eoreq	r0, ip, r7, lsl #2
      b4:	1d040000 	stcne	0, cr0, [r4, #-0]
      b8:	0000f401 	andeq	pc, r0, r1, lsl #8
      bc:	00590700 	subseq	r0, r9, r0, lsl #14
      c0:	07000000 	streq	r0, [r0, -r0]
      c4:	00000842 	andeq	r0, r0, r2, asr #16
      c8:	08630708 	stmdaeq	r3!, {r3, r8, r9, sl}^
      cc:	07090000 	streq	r0, [r9, -r0]
      d0:	000008a4 	andeq	r0, r0, r4, lsr #17
      d4:	064b070a 	strbeq	r0, [fp], -sl, lsl #14
      d8:	070b0000 	streq	r0, [fp, -r0]
      dc:	00000227 	andeq	r0, r0, r7, lsr #4
      e0:	0046070c 	subeq	r0, r6, ip, lsl #14
      e4:	070d0000 	streq	r0, [sp, -r0]
      e8:	000002f9 	strdeq	r0, [r0], -r9
      ec:	0259070e 	subseq	r0, r9, #3670016	; 0x380000
      f0:	000f0000 	andeq	r0, pc, r0
      f4:	2c010706 	stccs	7, cr0, [r1], {6}
      f8:	04000000 	streq	r0, [r0], #-0
      fc:	0121012a 			; <UNDEFINED> instruction: 0x0121012a
     100:	e8070000 	stmda	r7, {}	; <UNPREDICTABLE>
     104:	00000002 	andeq	r0, r0, r2
     108:	0007ec07 	andeq	lr, r7, r7, lsl #24
     10c:	fe070400 	cdp2	4, 0, cr0, cr7, cr0, {0}
     110:	05000007 	streq	r0, [r0, #-7]
     114:	00082007 	andeq	r2, r8, r7
     118:	75070600 	strvc	r0, [r7, #-1536]	; 0xfffffa00
     11c:	07000009 	streq	r0, [r0, -r9]
     120:	01070600 	tsteq	r7, r0, lsl #12
     124:	0000002c 	andeq	r0, r0, ip, lsr #32
     128:	4e013304 	cdpmi	3, 0, cr3, cr1, cr4, {0}
     12c:	07000001 	streq	r0, [r0, -r1]
     130:	0000060a 	andeq	r0, r0, sl, lsl #12
     134:	05c00700 	strbeq	r0, [r0, #1792]	; 0x700
     138:	07040000 	streq	r0, [r4, -r0]
     13c:	000005d2 	ldrdeq	r0, [r0], -r2
     140:	05f80705 	ldrbeq	r0, [r8, #1797]!	; 0x705
     144:	07060000 	streq	r0, [r6, -r0]
     148:	0000071b 	andeq	r0, r0, fp, lsl r7
     14c:	07060007 	streq	r0, [r6, -r7]
     150:	00002c01 	andeq	r2, r0, r1, lsl #24
     154:	013c0400 	teqeq	ip, r0, lsl #8
     158:	00000175 	andeq	r0, r0, r5, ror r1
     15c:	000a3007 	andeq	r3, sl, r7
     160:	9c070000 	stcls	0, cr0, [r7], {-0}
     164:	01000002 	tsteq	r0, r2
     168:	00094707 	andeq	r4, r9, r7, lsl #14
     16c:	7e070200 	cdpvc	2, 0, cr0, cr7, cr0, {0}
     170:	03000003 	movweq	r0, #3
     174:	01070600 	tsteq	r7, r0, lsl #12
     178:	0000002c 	andeq	r0, r0, ip, lsr #32
     17c:	b4014404 	strlt	r4, [r1], #-1028	; 0xfffffbfc
     180:	07000001 	streq	r0, [r0, -r1]
     184:	00000a08 	andeq	r0, r0, r8, lsl #20
     188:	0c210700 	stceq	7, cr0, [r1], #-0
     18c:	07010000 	streq	r0, [r1, -r0]
     190:	00000c30 	andeq	r0, r0, r0, lsr ip
     194:	0c3f0702 	ldceq	7, cr0, [pc], #-8	; 194 <isr_vectors-0x7fffe6c>
     198:	07030000 	streq	r0, [r3, -r0]
     19c:	00000c4e 	andeq	r0, r0, lr, asr #24
     1a0:	0c5d0704 	mrrceq	7, 0, r0, sp, cr4
     1a4:	07050000 	streq	r0, [r5, -r0]
     1a8:	00000c6c 	andeq	r0, r0, ip, ror #24
     1ac:	0c7b0706 	ldcleq	7, cr0, [fp], #-24	; 0xffffffe8
     1b0:	00070000 	andeq	r0, r7, r0
     1b4:	2c010706 	stccs	7, cr0, [r1], {6}
     1b8:	04000000 	streq	r0, [r0], #-0
     1bc:	039d0150 	orrseq	r0, sp, #80, 2
     1c0:	a2070000 	andge	r0, r7, #0
     1c4:	08000005 	stmdaeq	r0, {r0, r2}
     1c8:	0005b107 	andeq	fp, r5, r7, lsl #2
     1cc:	94070900 	strls	r0, [r7], #-2304	; 0xfffff700
     1d0:	0a000004 	beq	1e8 <isr_vectors-0x7fffe18>
     1d4:	0004a407 	andeq	sl, r4, r7, lsl #8
     1d8:	b4070b00 	strlt	r0, [r7], #-2816	; 0xfffff500
     1dc:	0c000004 	stceq	0, cr0, [r0], {4}
     1e0:	0004c407 	andeq	ip, r4, r7, lsl #8
     1e4:	d4070d00 	strle	r0, [r7], #-3328	; 0xfffff300
     1e8:	0e000004 	cdpeq	0, 0, cr0, cr0, cr4, {0}
     1ec:	0004e407 	andeq	lr, r4, r7, lsl #8
     1f0:	f4070f00 			; <UNDEFINED> instruction: 0xf4070f00
     1f4:	10000004 	andne	r0, r0, r4
     1f8:	00050407 	andeq	r0, r5, r7, lsl #8
     1fc:	14071100 	strne	r1, [r7], #-256	; 0xffffff00
     200:	12000005 	andne	r0, r0, #5
     204:	00052407 	andeq	r2, r5, r7, lsl #8
     208:	1b071300 	blne	1c4e10 <isr_vectors-0x7e3b1f0>
     20c:	14000006 	strne	r0, [r0], #-6
     210:	00062b07 	andeq	r2, r6, r7, lsl #22
     214:	3b071500 	blcc	1c561c <isr_vectors-0x7e3a9e4>
     218:	16000006 	strne	r0, [r0], -r6
     21c:	0002bb07 	andeq	fp, r2, r7, lsl #22
     220:	5d071700 	stcpl	7, cr1, [r7, #-0]
     224:	18000006 	stmdane	r0, {r1, r2}
     228:	00066d07 	andeq	r6, r6, r7, lsl #26
     22c:	7d071900 	vstrvc.16	s2, [r7, #-0]	; <UNPREDICTABLE>
     230:	1a000006 	bne	250 <isr_vectors-0x7fffdb0>
     234:	00068d07 	andeq	r8, r6, r7, lsl #26
     238:	9d071b00 	vstrls	d1, [r7, #-0]
     23c:	1c000006 	stcne	0, cr0, [r0], {6}
     240:	0006ad07 	andeq	sl, r6, r7, lsl #26
     244:	53071d00 	movwpl	r1, #32000	; 0x7d00
     248:	1e000008 	cdpne	0, 0, cr0, cr0, cr8, {0}
     24c:	00042007 	andeq	r2, r4, r7
     250:	74071f00 	strvc	r1, [r7], #-3840	; 0xfffff100
     254:	20000008 	andcs	r0, r0, r8
     258:	00088407 	andeq	r8, r8, r7, lsl #8
     25c:	94072100 	strls	r2, [r7], #-256	; 0xffffff00
     260:	22000008 	andcs	r0, r0, #8
     264:	00046207 	andeq	r6, r4, r7, lsl #4
     268:	b5072300 	strlt	r2, [r7, #-768]	; 0xfffffd00
     26c:	24000008 	strcs	r0, [r0], #-8
     270:	00047207 	andeq	r7, r4, r7, lsl #4
     274:	d3072500 	movwle	r2, #29952	; 0x7500
     278:	26000008 	strcs	r0, [r0], -r8
     27c:	0008e307 	andeq	lr, r8, r7, lsl #6
     280:	88072700 	stmdahi	r7, {r8, r9, sl, sp}
     284:	28000009 	stmdacs	r0, {r0, r3}
     288:	00099807 	andeq	r9, r9, r7, lsl #16
     28c:	a8072900 	stmdage	r7, {r8, fp, sp}
     290:	2a000009 	bcs	2bc <isr_vectors-0x7fffd44>
     294:	0009b807 	andeq	fp, r9, r7, lsl #16
     298:	c8072b00 	stmdagt	r7, {r8, r9, fp, sp}
     29c:	2c000009 	stccs	0, cr0, [r0], {9}
     2a0:	0009d807 	andeq	sp, r9, r7, lsl #16
     2a4:	e8072d00 	stmda	r7, {r8, sl, fp, sp}
     2a8:	2e000009 	cdpcs	0, 0, cr0, cr0, cr9, {0}
     2ac:	0009f807 	andeq	pc, r9, r7, lsl #16
     2b0:	10072f00 	andne	r2, r7, r0, lsl #30
     2b4:	30000008 	andcc	r0, r0, r8
     2b8:	000a2007 	andeq	r2, sl, r7
     2bc:	41073100 	mrsmi	r3, (UNDEF: 23)
     2c0:	3200000b 	andcc	r0, r0, #11
     2c4:	000b5107 	andeq	r5, fp, r7, lsl #2
     2c8:	61073300 	mrsvs	r3, SP_und
     2cc:	3400000b 	strcc	r0, [r0], #-11
     2d0:	000b7107 	andeq	r7, fp, r7, lsl #2
     2d4:	81073500 	tsthi	r7, r0, lsl #10
     2d8:	3600000b 	strcc	r0, [r0], -fp
     2dc:	000b9107 	andeq	r9, fp, r7, lsl #2
     2e0:	a1073700 	tstge	r7, r0, lsl #14
     2e4:	3800000b 	stmdacc	r0, {r0, r1, r3}
     2e8:	000bb107 	andeq	fp, fp, r7, lsl #2
     2ec:	c1073900 	tstgt	r7, r0, lsl #18
     2f0:	3a00000b 	bcc	324 <isr_vectors-0x7fffcdc>
     2f4:	000bd107 	andeq	sp, fp, r7, lsl #2
     2f8:	1b073b00 	blne	1cef00 <isr_vectors-0x7e31100>
     2fc:	3c000000 	stccc	0, cr0, [r0], {-0}
     300:	00002b07 	andeq	r2, r0, r7, lsl #22
     304:	ba073d00 	blt	1cf70c <isr_vectors-0x7e308f4>
     308:	3e000001 	cdpcc	0, 0, cr0, cr0, cr1, {0}
     30c:	0001ca07 	andeq	ip, r1, r7, lsl #20
     310:	da073f00 	ble	1cff18 <isr_vectors-0x7e300e8>
     314:	40000001 	andmi	r0, r0, r1
     318:	00006907 	andeq	r6, r0, r7, lsl #18
     31c:	79074100 	stmdbvc	r7, {r8, lr}
     320:	42000000 	andmi	r0, r0, #0
     324:	00008907 	andeq	r8, r0, r7, lsl #18
     328:	99074300 	stmdbls	r7, {r8, r9, lr}
     32c:	56000000 	strpl	r0, [r0], -r0
     330:	0000a907 	andeq	sl, r0, r7, lsl #18
     334:	17074500 	strne	r4, [r7, -r0, lsl #10]
     338:	46000002 	strmi	r0, [r0], -r2
     33c:	0007dc07 	andeq	sp, r7, r7, lsl #24
     340:	39074700 	stmdbcc	r7, {r8, r9, sl, lr}
     344:	48000002 	stmdami	r0, {r1}
     348:	00024907 	andeq	r4, r2, r7, lsl #18
     34c:	64074900 	strvs	r4, [r7], #-2304	; 0xfffff700
     350:	4a000005 	bmi	36c <isr_vectors-0x7fffc94>
     354:	00026c07 	andeq	r6, r2, r7, lsl #24
     358:	7c074b00 			; <UNDEFINED> instruction: 0x7c074b00
     35c:	4c000002 	stcmi	0, cr0, [r0], {2}
     360:	00028c07 	andeq	r8, r2, r7, lsl #24
     364:	92074d00 	andls	r4, r7, #0, 26
     368:	4e000005 	cdpmi	0, 0, cr0, cr0, cr5, {0}
     36c:	0002ab07 	andeq	sl, r2, r7, lsl #22
     370:	b0074f00 	andlt	r4, r7, r0, lsl #30
     374:	50000003 	andpl	r0, r0, r3
     378:	0003c007 	andeq	ip, r3, r7
     37c:	d0075100 	andle	r5, r7, r0, lsl #2
     380:	52000003 	andpl	r0, r0, #3
     384:	0003e007 	andeq	lr, r3, r7
     388:	f0075300 			; <UNDEFINED> instruction: 0xf0075300
     38c:	54000003 	strpl	r0, [r0], #-3
     390:	00040007 	andeq	r0, r4, r7
     394:	10075500 	andne	r5, r7, r0, lsl #10
     398:	56000004 	strpl	r0, [r0], -r4
     39c:	01070600 	tsteq	r7, r0, lsl #12
     3a0:	0000002c 	andeq	r0, r0, ip, lsr #32
     3a4:	c401a304 	strgt	sl, [r1], #-772	; 0xfffffcfc
     3a8:	07000003 	streq	r0, [r0, -r3]
     3ac:	000006d0 	ldrdeq	r0, [r0], -r0	; <UNPREDICTABLE>
     3b0:	06df0700 	ldrbeq	r0, [pc], r0, lsl #14
     3b4:	07010000 	streq	r0, [r1, -r0]
     3b8:	000006ee 	andeq	r0, r0, lr, ror #13
     3bc:	06fd0702 	ldrbteq	r0, [sp], r2, lsl #14
     3c0:	00030000 	andeq	r0, r3, r0
     3c4:	2c010706 	stccs	7, cr0, [r1], {6}
     3c8:	04000000 	streq	r0, [r0], #-0
     3cc:	03f701ab 	mvnseq	r0, #-1073741782	; 0xc000002a
     3d0:	bd070000 	stclt	0, cr0, [r7, #-0]
     3d4:	00000006 	andeq	r0, r0, r6
     3d8:	00072e07 	andeq	r2, r7, r7, lsl #28
     3dc:	45070100 	strmi	r0, [r7, #-256]	; 0xffffff00
     3e0:	0200000a 	andeq	r0, r0, #10
     3e4:	00078907 	andeq	r8, r7, r7, lsl #18
     3e8:	89070300 	stmdbhi	r7, {r8, r9}
     3ec:	0400000a 	streq	r0, [r0], #-10
     3f0:	000b0107 	andeq	r0, fp, r7, lsl #2
     3f4:	06000700 	streq	r0, [r0], -r0, lsl #14
     3f8:	002c0107 	eoreq	r0, ip, r7, lsl #2
     3fc:	b6040000 	strlt	r0, [r4], -r0
     400:	00041201 	andeq	r1, r4, r1, lsl #4
     404:	0ac90700 	beq	ff24200c <_endOfBss+0xdf241fd4>
     408:	07010000 	streq	r0, [r1, -r0]
     40c:	00000ad9 	ldrdeq	r0, [r0], -r9
     410:	07060002 	streq	r0, [r6, -r2]
     414:	00002c01 	andeq	r2, r0, r1, lsl #24
     418:	01bd0400 			; <UNDEFINED> instruction: 0x01bd0400
     41c:	0000043f 	andeq	r0, r0, pc, lsr r4
     420:	000aad07 	andeq	sl, sl, r7, lsl #26
     424:	7a070000 	bvc	1c042c <isr_vectors-0x7e3fbd4>
     428:	01000001 	tsteq	r0, r1
     42c:	00043007 	andeq	r3, r4, r7
     430:	14070200 	strne	r0, [r7], #-512	; 0xfffffe00
     434:	0300000b 	movweq	r0, #11
     438:	0007c007 	andeq	ip, r7, r7
     43c:	06000400 	streq	r0, [r0], -r0, lsl #8
     440:	002c0107 	eoreq	r0, ip, r7, lsl #2
     444:	c7040000 	strgt	r0, [r4, -r0]
     448:	00046601 	andeq	r6, r4, r1, lsl #12
     44c:	0c060700 	stceq	7, cr0, [r6], {-0}
     450:	07000000 	streq	r0, [r0, -r0]
     454:	00000a9c 	muleq	r0, ip, sl
     458:	05340701 	ldreq	r0, [r4, #-1793]!	; 0xfffff8ff
     45c:	07020000 	streq	r0, [r2, -r0]
     460:	00000a70 	andeq	r0, r0, r0, ror sl
     464:	07060003 	streq	r0, [r6, -r3]
     468:	00002c01 	andeq	r2, r0, r1, lsl #24
     46c:	01cf0400 	biceq	r0, pc, r0, lsl #8
     470:	0000048d 	andeq	r0, r0, sp, lsl #9
     474:	00070c07 	andeq	r0, r7, r7, lsl #24
     478:	82070000 	andhi	r0, r7, #0
     47c:	01000004 	tsteq	r0, r4
     480:	00083207 	andeq	r3, r8, r7, lsl #4
     484:	62070200 	andvs	r0, r7, #0, 4
     488:	03000007 	movweq	r0, #7
     48c:	04a00800 	strteq	r0, [r0], #2048	; 0x800
     490:	06a609de 	ssateq	r0, #7, lr, asr #19
     494:	43090000 	movwmi	r0, #36864	; 0x9000
     498:	e0040052 	and	r0, r4, r2, asr r0
     49c:	00008317 	andeq	r8, r0, r7, lsl r3
     4a0:	e10a0000 	mrs	r0, (UNDEF: 10)
     4a4:	0400000b 	streq	r0, [r0], #-11
     4a8:	008317e1 	addeq	r1, r3, r1, ror #15
     4ac:	0a040000 	beq	1004b4 <isr_vectors-0x7effb4c>
     4b0:	00000b37 	andeq	r0, r0, r7, lsr fp
     4b4:	8317e204 	tsthi	r7, #4, 4	; 0x40000000
     4b8:	08000000 	stmdaeq	r0, {}	; <UNPREDICTABLE>
     4bc:	0007490a 	andeq	r4, r7, sl, lsl #18
     4c0:	17e30400 	strbne	r0, [r3, r0, lsl #8]!
     4c4:	00000083 	andeq	r0, r0, r3, lsl #1
     4c8:	0b300a0c 	bleq	c02d00 <isr_vectors-0x73fd300>
     4cc:	e4040000 	str	r0, [r4], #-0
     4d0:	00008317 	andeq	r8, r0, r7, lsl r3
     4d4:	c00a1000 	andgt	r1, sl, r0
     4d8:	04000000 	streq	r0, [r0], #-0
     4dc:	007717e5 	rsbseq	r1, r7, r5, ror #15
     4e0:	0a140000 	beq	5004e8 <isr_vectors-0x7affb18>
     4e4:	000001ea 	andeq	r0, r0, sl, ror #3
     4e8:	8317e604 	tsthi	r7, #4, 12	; 0x400000
     4ec:	18000000 	stmdane	r0, {}	; <UNPREDICTABLE>
     4f0:	00038d0a 	andeq	r8, r3, sl, lsl #26
     4f4:	17e70400 	strbne	r0, [r7, r0, lsl #8]!
     4f8:	00000083 	andeq	r0, r0, r3, lsl #1
     4fc:	0afc0a1c 	beq	fff02d74 <_endOfBss+0xdff02d3c>
     500:	e8040000 	stmda	r4, {}	; <UNPREDICTABLE>
     504:	00008317 	andeq	r8, r0, r7, lsl r3
     508:	d60a2000 	strle	r2, [sl], -r0
     50c:	04000000 	streq	r0, [r0], #-0
     510:	007717e9 	rsbseq	r1, r7, r9, ror #15
     514:	0a240000 	beq	90051c <isr_vectors-0x76ffae4>
     518:	0000020e 	andeq	r0, r0, lr, lsl #4
     51c:	8317ea04 	tsthi	r7, #4, 20	; 0x4000
     520:	28000000 	stmdacs	r0, {}	; <UNPREDICTABLE>
     524:	0003920a 	andeq	r9, r3, sl, lsl #4
     528:	17eb0400 	strbne	r0, [fp, r0, lsl #8]!
     52c:	00000083 	andeq	r0, r0, r3, lsl #1
     530:	09580a2c 	ldmdbeq	r8, {r2, r3, r5, r9, fp}^
     534:	ec040000 	stc	0, cr0, [r4], {-0}
     538:	00008317 	andeq	r8, r0, r7, lsl r3
     53c:	ec0a3000 	stc	0, cr3, [sl], {-0}
     540:	04000000 	streq	r0, [r0], #-0
     544:	007717ed 	rsbseq	r1, r7, sp, ror #15
     548:	0a340000 	beq	d00550 <isr_vectors-0x72ffab0>
     54c:	000002d4 	ldrdeq	r0, [r0], -r4
     550:	8317ee04 	tsthi	r7, #4, 28	; 0x40
     554:	38000000 	stmdacc	r0, {}	; <UNPREDICTABLE>
     558:	0002de0a 	andeq	sp, r2, sl, lsl #28
     55c:	17ef0400 	strbne	r0, [pc, r0, lsl #8]!
     560:	00000083 	andeq	r0, r0, r3, lsl #1
     564:	02cb0a3c 	sbceq	r0, fp, #60, 20	; 0x3c000
     568:	f0040000 			; <UNDEFINED> instruction: 0xf0040000
     56c:	00008317 	andeq	r8, r0, r7, lsl r3
     570:	020a4000 	andeq	r4, sl, #0
     574:	04000001 	streq	r0, [r0], #-1
     578:	007717f1 	ldrshteq	r1, [r7], #-113	; 0xffffff8f
     57c:	0a440000 	beq	1100584 <isr_vectors-0x6effa7c>
     580:	00000bf2 	strdeq	r0, [r0], -r2
     584:	8317f204 	tsthi	r7, #4, 4	; 0x40000000	; <UNPREDICTABLE>
     588:	48000000 	stmdami	r0, {}	; <UNPREDICTABLE>
     58c:	000a810a 	andeq	r8, sl, sl, lsl #2
     590:	17f30400 	ldrbne	r0, [r3, r0, lsl #8]!
     594:	00000083 	andeq	r0, r0, r3, lsl #1
     598:	09610a4c 	stmdbeq	r1!, {r2, r3, r6, r9, fp}^
     59c:	f4040000 	vst4.8	{d0-d3}, [r4], r0
     5a0:	00008317 	andeq	r8, r0, r7, lsl r3
     5a4:	180a5000 	stmdane	sl, {ip, lr}
     5a8:	04000001 	streq	r0, [r0], #-1
     5ac:	007717f5 	ldrshteq	r1, [r7], #-117	; 0xffffff8b
     5b0:	0a540000 	beq	15005b8 <isr_vectors-0x6affa48>
     5b4:	00000777 	andeq	r0, r0, r7, ror r7
     5b8:	8317f604 	tsthi	r7, #4, 12	; 0x400000	; <UNPREDICTABLE>
     5bc:	58000000 	stmdapl	r0, {}	; <UNPREDICTABLE>
     5c0:	0007800a 	andeq	r8, r7, sl
     5c4:	17f70400 	ldrbne	r0, [r7, r0, lsl #8]!
     5c8:	00000083 	andeq	r0, r0, r3, lsl #1
     5cc:	0af40a5c 	beq	ffd02f44 <_endOfBss+0xdfd02f0c>
     5d0:	f8040000 			; <UNDEFINED> instruction: 0xf8040000
     5d4:	00008317 	andeq	r8, r0, r7, lsl r3
     5d8:	320a6000 	andcc	r6, sl, #0
     5dc:	04000009 	streq	r0, [r0], #-9
     5e0:	007717f9 	ldrshteq	r1, [r7], #-121	; 0xffffff87
     5e4:	0a640000 	beq	19005ec <isr_vectors-0x66ffa14>
     5e8:	00000a66 	andeq	r0, r0, r6, ror #20
     5ec:	8317fa04 	tsthi	r7, #4, 20	; 0x4000	; <UNPREDICTABLE>
     5f0:	68000000 	stmdavs	r0, {}	; <UNPREDICTABLE>
     5f4:	0003a60a 	andeq	sl, r3, sl, lsl #12
     5f8:	17fb0400 	ldrbne	r0, [fp, r0, lsl #8]!
     5fc:	00000083 	andeq	r0, r0, r3, lsl #1
     600:	05880a6c 	streq	r0, [r8, #2668]	; 0xa6c
     604:	fc040000 	stc2	0, cr0, [r4], {-0}
     608:	00008317 	andeq	r8, r0, r7, lsl r3
     60c:	380a7000 	stmdacc	sl, {ip, sp, lr}
     610:	04000001 	streq	r0, [r0], #-1
     614:	007717fd 	ldrshteq	r1, [r7], #-125	; 0xffffff83
     618:	0a740000 	beq	1d00620 <isr_vectors-0x62ff9e0>
     61c:	00000be7 	andeq	r0, r0, r7, ror #23
     620:	8317fe04 	tsthi	r7, #4, 28	; 0x40	; <UNPREDICTABLE>
     624:	78000000 	stmdavc	r0, {}	; <UNPREDICTABLE>
     628:	000c8a0a 	andeq	r8, ip, sl, lsl #20
     62c:	17ff0400 	ldrbne	r0, [pc, r0, lsl #8]!
     630:	00000083 	andeq	r0, r0, r3, lsl #1
     634:	012e0b7c 			; <UNDEFINED> instruction: 0x012e0b7c
     638:	00040000 	andeq	r0, r4, r0
     63c:	00831701 	addeq	r1, r3, r1, lsl #14
     640:	0b800000 	bleq	fe000648 <_endOfBss+0xde000610>
     644:	0000014e 	andeq	r0, r0, lr, asr #2
     648:	17010104 	strne	r0, [r1, -r4, lsl #2]
     64c:	00000077 	andeq	r0, r0, r7, ror r0
     650:	0c1b0b84 			; <UNDEFINED> instruction: 0x0c1b0b84
     654:	02040000 	andeq	r0, r4, #0
     658:	00831701 	addeq	r1, r3, r1, lsl #14
     65c:	0b880000 	bleq	fe200664 <_endOfBss+0xde20062c>
     660:	0000044c 	andeq	r0, r0, ip, asr #8
     664:	17010304 	strne	r0, [r1, -r4, lsl #6]
     668:	00000077 	andeq	r0, r0, r7, ror r0
     66c:	0b3c0b8c 	bleq	f034a4 <isr_vectors-0x70fcb5c>
     670:	04040000 	streq	r0, [r4], #-0
     674:	00831701 	addeq	r1, r3, r1, lsl #14
     678:	0c900000 	ldceq	0, cr0, [r0], {0}
     67c:	00525343 	subseq	r5, r2, r3, asr #6
     680:	17010504 	strne	r0, [r1, -r4, lsl #10]
     684:	00000083 	andeq	r0, r0, r3, lsl #1
     688:	092c0b94 	stmdbeq	ip!, {r2, r4, r7, r8, r9, fp}
     68c:	06040000 	streq	r0, [r4], -r0
     690:	00831701 	addeq	r1, r3, r1, lsl #14
     694:	0b980000 	bleq	fe60069c <_endOfBss+0xde600664>
     698:	000001b3 			; <UNDEFINED> instruction: 0x000001b3
     69c:	17010704 	strne	r0, [r1, -r4, lsl #14]
     6a0:	00000083 	andeq	r0, r0, r3, lsl #1
     6a4:	f30d009c 	vqadd.u8	d0, d29, d12
     6a8:	04000008 	streq	r0, [r0], #-8
     6ac:	8d030108 	stfhis	f0, [r3, #-32]	; 0xffffffe0
     6b0:	0e000004 	cdpeq	0, 0, cr0, cr0, cr4, {0}
     6b4:	010a042c 	tsteq	sl, ip, lsr #8
     6b8:	00075809 	andeq	r5, r7, r9, lsl #16
     6bc:	01960b00 	orrseq	r0, r6, r0, lsl #22
     6c0:	0c040000 	stceq	0, cr0, [r4], {-0}
     6c4:	00831701 	addeq	r1, r3, r1, lsl #14
     6c8:	0b000000 	bleq	6d0 <isr_vectors-0x7fff930>
     6cc:	000000b9 	strheq	r0, [r0], -r9
     6d0:	17010d04 	strne	r0, [r1, -r4, lsl #26]
     6d4:	00000083 	andeq	r0, r0, r3, lsl #1
     6d8:	07410b04 	strbeq	r0, [r1, -r4, lsl #22]
     6dc:	0e040000 	cdpeq	0, 0, cr0, cr4, cr0, {0}
     6e0:	00831701 	addeq	r1, r3, r1, lsl #14
     6e4:	0b080000 	bleq	2006ec <isr_vectors-0x7dff914>
     6e8:	00000010 	andeq	r0, r0, r0, lsl r0
     6ec:	17010f04 	strne	r0, [r1, -r4, lsl #30]
     6f0:	00000083 	andeq	r0, r0, r3, lsl #1
     6f4:	44490c0c 	strbmi	r0, [r9], #-3084	; 0xfffff3f4
     6f8:	10040052 	andne	r0, r4, r2, asr r0
     6fc:	00831701 	addeq	r1, r3, r1, lsl #14
     700:	0c100000 	ldceq	0, cr0, [r0], {-0}
     704:	0052444f 	subseq	r4, r2, pc, asr #8
     708:	17011104 	strne	r1, [r1, -r4, lsl #2]
     70c:	00000083 	andeq	r0, r0, r3, lsl #1
     710:	02090b14 	andeq	r0, r9, #20, 22	; 0x5000
     714:	12040000 	andne	r0, r4, #0
     718:	00831701 	addeq	r1, r3, r1, lsl #14
     71c:	0b180000 	bleq	600724 <isr_vectors-0x79ff8dc>
     720:	00000016 	andeq	r0, r0, r6, lsl r0
     724:	17011304 	strne	r1, [r1, -r4, lsl #6]
     728:	00000083 	andeq	r0, r0, r3, lsl #1
     72c:	07bb0b1c 			; <UNDEFINED> instruction: 0x07bb0b1c
     730:	14040000 	strne	r0, [r4], #-0
     734:	00831701 	addeq	r1, r3, r1, lsl #14
     738:	0b200000 	bleq	800740 <isr_vectors-0x77ff8c0>
     73c:	000007a2 	andeq	r0, r0, r2, lsr #15
     740:	17011504 	strne	r1, [r1, -r4, lsl #10]
     744:	00000083 	andeq	r0, r0, r3, lsl #1
     748:	52420c24 	subpl	r0, r2, #36, 24	; 0x2400
     74c:	16040052 			; <UNDEFINED> instruction: 0x16040052
     750:	00831701 	addeq	r1, r3, r1, lsl #14
     754:	00280000 	eoreq	r0, r8, r0
     758:	000a580d 	andeq	r5, sl, sp, lsl #16
     75c:	01180400 	tsteq	r8, r0, lsl #8
     760:	0006b303 	andeq	fp, r6, r3, lsl #6
     764:	04100e00 	ldreq	r0, [r0], #-3584	; 0xfffff200
     768:	a8090147 	stmdage	r9, {r0, r1, r2, r6, r8}
     76c:	0b000007 	bleq	790 <isr_vectors-0x7fff870>
     770:	00000ae9 	andeq	r0, r0, r9, ror #21
     774:	17014904 	strne	r4, [r1, -r4, lsl #18]
     778:	00000083 	andeq	r0, r0, r3, lsl #1
     77c:	030c0b00 	movweq	r0, #51968	; 0xcb00
     780:	4a040000 	bmi	100788 <isr_vectors-0x7eff878>
     784:	00831701 	addeq	r1, r3, r1, lsl #14
     788:	0c040000 	stceq	0, cr0, [r4], {-0}
     78c:	004c4156 	subeq	r4, ip, r6, asr r1
     790:	17014b04 	strne	r4, [r1, -r4, lsl #22]
     794:	00000083 	andeq	r0, r0, r3, lsl #1
     798:	0aee0b08 	beq	ffb833c0 <_endOfBss+0xdfb83388>
     79c:	4c040000 	stcmi	0, cr0, [r4], {-0}
     7a0:	00831701 	addeq	r1, r3, r1, lsl #14
     7a4:	000c0000 	andeq	r0, ip, r0
     7a8:	0007510d 	andeq	r5, r7, sp, lsl #2
     7ac:	014d0400 	cmpeq	sp, r0, lsl #8
     7b0:	00076503 	andeq	r6, r7, r3, lsl #10
     7b4:	43520f00 	cmpmi	r2, #0, 30
     7b8:	50040043 	andpl	r0, r4, r3, asr #32
     7bc:	07c21801 	strbeq	r1, [r2, r1, lsl #16]
     7c0:	04100000 	ldreq	r0, [r0], #-0
     7c4:	000006a6 	andeq	r0, r0, r6, lsr #13
     7c8:	00079c11 	andeq	r9, r7, r1, lsl ip
     7cc:	01510400 	cmpeq	r1, r0, lsl #8
     7d0:	0007d518 	andeq	sp, r7, r8, lsl r5
     7d4:	58041000 	stmdapl	r4, {ip}
     7d8:	0f000007 	svceq	0x00000007
     7dc:	004b5453 	subeq	r5, fp, r3, asr r4
     7e0:	1a015904 	bne	56bf8 <isr_vectors-0x7fa9408>
     7e4:	000007e8 	andeq	r0, r0, r8, ror #15
     7e8:	07a80410 			; <UNDEFINED> instruction: 0x07a80410
     7ec:	fa120000 	blx	4807f4 <isr_vectors-0x7b7f80c>
     7f0:	0500000b 	streq	r0, [r0, #-11]
     7f4:	00831a14 	addeq	r1, r3, r4, lsl sl
     7f8:	69120000 	ldmdbvs	r2, {}	; <UNPREDICTABLE>
     7fc:	05000009 	streq	r0, [r0, #-9]
     800:	00831a15 	addeq	r1, r3, r5, lsl sl
     804:	fa130000 	blx	4c080c <isr_vectors-0x7b3f7f4>
     808:	01000007 	tsteq	r0, r7
     80c:	03051306 	movweq	r1, #21254	; 0x5306
     810:	20000028 	andcs	r0, r0, r8, lsr #32
     814:	0007ee13 	andeq	lr, r7, r3, lsl lr
     818:	13070100 	movwne	r0, #28928	; 0x7100
     81c:	002c0305 	eoreq	r0, ip, r5, lsl #6
     820:	16142000 	ldrne	r2, [r4], -r0
     824:	0100000c 	tsteq	r0, ip
     828:	00690543 	rsbeq	r0, r9, r3, asr #10
     82c:	03200000 	nopeq	{0}	; <UNPREDICTABLE>
     830:	00120800 	andseq	r0, r2, r0, lsl #16
     834:	9c010000 	stcls	0, cr0, [r1], {-0}
     838:	00000015 	andeq	r0, r0, r5, lsl r0
     83c:	06390100 	ldrteq	r0, [r9], -r0, lsl #2
     840:	080002d8 	stmdaeq	r0, {r3, r4, r6, r7, r9}
     844:	00000048 	andeq	r0, r0, r8, asr #32
     848:	fd169c01 	ldc2	12, cr9, [r6, #-4]
     84c:	01000001 	tsteq	r0, r1
     850:	01880608 	orreq	r0, r8, r8, lsl #12
     854:	01500800 	cmpeq	r0, r0, lsl #16
     858:	9c010000 	stcls	0, cr0, [r1], {-0}
     85c:	00023d00 	andeq	r3, r2, r0, lsl #26
     860:	6c000400 	cfstrsvs	mvf0, [r0], {-0}
     864:	04000001 	streq	r0, [r0], #-1
     868:	00031101 	andeq	r1, r3, r1, lsl #2
     86c:	0d400c00 	stcleq	12, cr0, [r0, #-0]
     870:	09000000 	stmdbeq	r0, {}	; <UNPREDICTABLE>
     874:	03340000 	teqeq	r4, #0
     878:	00940800 	addseq	r0, r4, r0, lsl #16
     87c:	019f0000 	orrseq	r0, pc, r0
     880:	01020000 	mrseq	r0, (UNDEF: 2)
     884:	0008c706 	andeq	ip, r8, r6, lsl #14
     888:	08010200 	stmdaeq	r1, {r9}
     88c:	000008c5 	andeq	r0, r0, r5, asr #17
     890:	22050202 	andcs	r0, r5, #536870912	; 0x20000000
     894:	02000009 	andeq	r0, r0, #9
     898:	05510702 	ldrbeq	r0, [r1, #-1794]	; 0xfffff8fe
     89c:	04020000 	streq	r0, [r2], #-0
     8a0:	0001f405 	andeq	pc, r1, r5, lsl #8
     8a4:	039b0300 	orrseq	r0, fp, #0, 6
     8a8:	4f020000 	svcmi	0x00020000
     8ac:	00005419 	andeq	r5, r0, r9, lsl r4
     8b0:	07040200 	streq	r0, [r4, -r0, lsl #4]
     8b4:	000001a1 	andeq	r0, r0, r1, lsr #3
     8b8:	ef050802 	svc	0x00050802
     8bc:	02000001 	andeq	r0, r0, #1
     8c0:	019c0708 	orrseq	r0, ip, r8, lsl #14
     8c4:	04040000 	streq	r0, [r4], #-0
     8c8:	746e6905 	strbtvc	r6, [lr], #-2309	; 0xfffff6fb
     8cc:	07040200 	streq	r0, [r4, -r0, lsl #4]
     8d0:	000001a6 	andeq	r0, r0, r6, lsr #3
     8d4:	00039d03 	andeq	r9, r3, r3, lsl #26
     8d8:	14300300 	ldrtne	r0, [r0], #-768	; 0xfffffd00
     8dc:	00000048 	andeq	r0, r0, r8, asr #32
     8e0:	00007705 	andeq	r7, r0, r5, lsl #14
     8e4:	01070600 	tsteq	r7, r0, lsl #12
     8e8:	0000002c 	andeq	r0, r0, ip, lsr #32
     8ec:	b501bd04 	strlt	fp, [r1, #-3332]	; 0xfffff2fc
     8f0:	07000000 	streq	r0, [r0, -r0]
     8f4:	00000aad 	andeq	r0, r0, sp, lsr #21
     8f8:	017a0700 	cmneq	sl, r0, lsl #14
     8fc:	07010000 	streq	r0, [r1, -r0]
     900:	00000430 	andeq	r0, r0, r0, lsr r4
     904:	0b140702 	bleq	502514 <isr_vectors-0x7afdaec>
     908:	07030000 	streq	r0, [r3, -r0]
     90c:	000007c0 	andeq	r0, r0, r0, asr #15
     910:	c8030004 	stmdagt	r3, {r2}
     914:	0400000c 	streq	r0, [r0], #-12
     918:	008803c3 	addeq	r0, r8, r3, asr #7
     91c:	34080000 	strcc	r0, [r8], #-0
     920:	09013604 	stmdbeq	r1, {r2, r9, sl, ip, sp}
     924:	00000180 	andeq	r0, r0, r0, lsl #3
     928:	52434109 	subpl	r4, r3, #1073741826	; 0x40000002
     92c:	01380400 	teqeq	r8, r0, lsl #8
     930:	00008317 	andeq	r8, r0, r7, lsl r3
     934:	300a0000 	andcc	r0, sl, r0
     938:	0400000d 	streq	r0, [r0], #-13
     93c:	83170139 	tsthi	r7, #1073741838	; 0x4000000e
     940:	04000000 	streq	r0, [r0], #-0
     944:	000d320a 	andeq	r3, sp, sl, lsl #4
     948:	013a0400 	teqeq	sl, r0, lsl #8
     94c:	00008317 	andeq	r8, r0, r7, lsl r3
     950:	100a0800 	andne	r0, sl, r0, lsl #16
     954:	0400000d 	streq	r0, [r0], #-13
     958:	8317013b 	tsthi	r7, #-1073741810	; 0xc000000e
     95c:	0c000000 	stceq	0, cr0, [r0], {-0}
     960:	00525309 	subseq	r5, r2, r9, lsl #6
     964:	17013c04 	strne	r3, [r1, -r4, lsl #24]
     968:	00000083 	andeq	r0, r0, r3, lsl #1
     96c:	52430910 	subpl	r0, r3, #16, 18	; 0x40000
     970:	013d0400 	teqeq	sp, r0, lsl #8
     974:	00008317 	andeq	r8, r0, r7, lsl r3
     978:	ee0a1400 	cfcpys	mvf1, mvf10
     97c:	0400000c 	streq	r0, [r0], #-12
     980:	8317013e 	tsthi	r7, #-2147483633	; 0x8000000f
     984:	18000000 	stmdane	r0, {}	; <UNPREDICTABLE>
     988:	000c950a 	andeq	r9, ip, sl, lsl #10
     98c:	013f0400 	teqeq	pc, r0, lsl #8
     990:	00008317 	andeq	r8, r0, r7, lsl r3
     994:	6e0a1c00 	cdpvs	12, 0, cr1, cr10, cr0, {0}
     998:	0400000d 	streq	r0, [r0], #-13
     99c:	83170140 	tsthi	r7, #64, 2
     9a0:	20000000 	andcs	r0, r0, r0
     9a4:	000d730a 	andeq	r7, sp, sl, lsl #6
     9a8:	01410400 	cmpeq	r1, r0, lsl #8
     9ac:	00008317 	andeq	r8, r0, r7, lsl r3
     9b0:	370a2400 	strcc	r2, [sl, -r0, lsl #8]
     9b4:	0400000d 	streq	r0, [r0], #-13
     9b8:	83170142 	tsthi	r7, #-2147483632	; 0x80000010
     9bc:	28000000 	stmdacs	r0, {}	; <UNPREDICTABLE>
     9c0:	000d520a 	andeq	r5, sp, sl, lsl #4
     9c4:	01430400 	cmpeq	r3, r0, lsl #8
     9c8:	00008317 	andeq	r8, r0, r7, lsl r3
     9cc:	ad0a2c00 	stcge	12, cr2, [sl, #-0]
     9d0:	0400000c 	streq	r0, [r0], #-12
     9d4:	83170144 	tsthi	r7, #68, 2
     9d8:	30000000 	andcc	r0, r0, r0
     9dc:	0cb90b00 	vldmiaeq	r9!, {d0-d-1}
     9e0:	45040000 	strmi	r0, [r4, #-0]
     9e4:	00c10301 	sbceq	r0, r1, r1, lsl #6
     9e8:	4c0c0000 	stcmi	0, cr0, [ip], {-0}
     9ec:	0400000d 	streq	r0, [r0], #-13
     9f0:	9a180158 	bls	600f58 <isr_vectors-0x79ff0a8>
     9f4:	0d000001 	stceq	0, cr0, [r0, #-4]
     9f8:	00018004 	andeq	r8, r1, r4
     9fc:	0cb40300 	ldceq	3, cr0, [r4]
     a00:	13050000 	movwne	r0, #20480	; 0x5000
     a04:	0000690d 	andeq	r6, r0, sp, lsl #18
     a08:	0cde0e00 	ldcleq	14, cr0, [lr], {0}
     a0c:	13010000 	movwne	r0, #4096	; 0x1000
     a10:	0003a006 	andeq	sl, r3, r6
     a14:	00002808 	andeq	r2, r0, r8, lsl #16
     a18:	d29c0100 	addsle	r0, ip, #0, 2
     a1c:	0f000001 	svceq	0x00000001
     a20:	00000d18 	andeq	r0, r0, r8, lsl sp
     a24:	b52c1301 	strlt	r1, [ip, #-769]!	; 0xfffffcff
     a28:	02000000 	andeq	r0, r0, #0
     a2c:	0e007791 	mcreq	7, 0, r7, cr0, cr1, {4}
     a30:	00000d59 	andeq	r0, r0, r9, asr sp
     a34:	7c060e01 	stcvc	14, cr0, [r6], {1}
     a38:	24080003 	strcs	r0, [r8], #-3
     a3c:	01000000 	mrseq	r0, (UNDEF: 0)
     a40:	0001f89c 	muleq	r1, ip, r8
     a44:	0cf30f00 	ldcleq	15, cr0, [r3]
     a48:	0e010000 	cdpeq	0, 0, cr0, cr1, cr0, {0}
     a4c:	0001a020 	andeq	sl, r1, r0, lsr #32
     a50:	74910200 	ldrvc	r0, [r1], #512	; 0x200
     a54:	0cf90e00 	ldcleq	14, cr0, [r9]
     a58:	09010000 	stmdbeq	r1, {}	; <UNPREDICTABLE>
     a5c:	00035806 	andeq	r5, r3, r6, lsl #16
     a60:	00002408 	andeq	r2, r0, r8, lsl #8
     a64:	1e9c0100 	fmlnee	f0, f4, f0
     a68:	0f000002 	svceq	0x00000002
     a6c:	00000cf3 	strdeq	r0, [r0], -r3
     a70:	a0220901 	eorge	r0, r2, r1, lsl #18
     a74:	02000001 	andeq	r0, r0, #1
     a78:	10007491 	mulne	r0, r1, r4
     a7c:	00000d20 	andeq	r0, r0, r0, lsr #26
     a80:	34060401 	strcc	r0, [r6], #-1025	; 0xfffffbff
     a84:	24080003 	strcs	r0, [r8], #-3
     a88:	01000000 	mrseq	r0, (UNDEF: 0)
     a8c:	0cf30f9c 	ldcleq	15, cr0, [r3], #624	; 0x270
     a90:	04010000 	streq	r0, [r1], #-0
     a94:	0001a01b 	andeq	sl, r1, fp, lsl r0
     a98:	74910200 	ldrvc	r0, [r1], #512	; 0x200
     a9c:	03000000 	movweq	r0, #0
     aa0:	00040000 	andeq	r0, r4, r0
     aa4:	0000026b 	andeq	r0, r0, fp, ror #4
     aa8:	03110104 	tsteq	r1, #4, 2
     aac:	1b0c0000 	blne	300ab4 <isr_vectors-0x7cff54c>
     ab0:	0000000e 	andeq	r0, r0, lr
     ab4:	c8000009 	stmdagt	r0, {r0, r3}
     ab8:	a0080003 	andge	r0, r8, r3
     abc:	f7000000 			; <UNDEFINED> instruction: 0xf7000000
     ac0:	02000002 	andeq	r0, r0, #2
     ac4:	08c70601 	stmiaeq	r7, {r0, r9, sl}^
     ac8:	82030000 	andhi	r0, r3, #0
     acc:	0200000d 	andeq	r0, r0, #13
     ad0:	0038182b 	eorseq	r1, r8, fp, lsr #16
     ad4:	01020000 	mrseq	r0, (UNDEF: 2)
     ad8:	0008c508 	andeq	ip, r8, r8, lsl #10
     adc:	05020200 	streq	r0, [r2, #-512]	; 0xfffffe00
     ae0:	00000922 	andeq	r0, r0, r2, lsr #18
     ae4:	51070202 	tstpl	r7, r2, lsl #4
     ae8:	02000005 	andeq	r0, r0, #5
     aec:	01f40504 	mvnseq	r0, r4, lsl #10
     af0:	9b030000 	blls	c0af8 <isr_vectors-0x7f3f508>
     af4:	02000003 	andeq	r0, r0, #3
     af8:	0060194f 	rsbeq	r1, r0, pc, asr #18
     afc:	04020000 	streq	r0, [r2], #-0
     b00:	0001a107 	andeq	sl, r1, r7, lsl #2
     b04:	05080200 	streq	r0, [r8, #-512]	; 0xfffffe00
     b08:	000001ef 	andeq	r0, r0, pc, ror #3
     b0c:	9c070802 	stcls	8, cr0, [r7], {2}
     b10:	04000001 	streq	r0, [r0], #-1
     b14:	6e690504 	cdpvs	5, 6, cr0, cr9, cr4, {0}
     b18:	04020074 	streq	r0, [r2], #-116	; 0xffffff8c
     b1c:	0001a607 	andeq	sl, r1, r7, lsl #12
     b20:	0d840300 	stceq	3, cr0, [r4]
     b24:	18030000 	stmdane	r3, {}	; <UNPREDICTABLE>
     b28:	00002c13 	andeq	r2, r0, r3, lsl ip
     b2c:	039d0300 	orrseq	r0, sp, #0, 6
     b30:	30030000 	andcc	r0, r3, r0
     b34:	00005414 	andeq	r5, r0, r4, lsl r4
     b38:	008f0500 	addeq	r0, pc, r0, lsl #10
     b3c:	07060000 	streq	r0, [r6, -r0]
     b40:	00003801 	andeq	r3, r0, r1, lsl #16
     b44:	01c70400 	biceq	r0, r7, r0, lsl #8
     b48:	000000c7 	andeq	r0, r0, r7, asr #1
     b4c:	000c0607 	andeq	r0, ip, r7, lsl #12
     b50:	9c070000 	stcls	0, cr0, [r7], {-0}
     b54:	0100000a 	tsteq	r0, sl
     b58:	00053407 	andeq	r3, r5, r7, lsl #8
     b5c:	70070200 	andvc	r0, r7, r0, lsl #4
     b60:	0300000a 	movweq	r0, #10
     b64:	0e0b0300 	cdpeq	3, 0, cr0, cr11, cr0, {0}
     b68:	cc040000 	stcgt	0, cr0, [r4], {-0}
     b6c:	0000a003 	andeq	sl, r0, r3
     b70:	01070600 	tsteq	r7, r0, lsl #12
     b74:	00000038 	andeq	r0, r0, r8, lsr r0
     b78:	fa01cf04 	blx	74790 <isr_vectors-0x7f8b870>
     b7c:	07000000 	streq	r0, [r0, -r0]
     b80:	0000070c 	andeq	r0, r0, ip, lsl #14
     b84:	04820700 	streq	r0, [r2], #1792	; 0x700
     b88:	07010000 	streq	r0, [r1, -r0]
     b8c:	00000832 	andeq	r0, r0, r2, lsr r8
     b90:	07620702 	strbeq	r0, [r2, -r2, lsl #14]!
     b94:	00030000 	andeq	r0, r3, r0
     b98:	000d9303 	andeq	r9, sp, r3, lsl #6
     b9c:	03d40400 	bicseq	r0, r4, #0, 8
     ba0:	000000d3 	ldrdeq	r0, [r0], -r3
     ba4:	38010706 	stmdacc	r1, {r1, r2, r8, r9, sl}
     ba8:	04000000 	streq	r0, [r0], #-0
     bac:	012701d7 	ldrdeq	r0, [r7, -r7]!
     bb0:	f5070000 			; <UNDEFINED> instruction: 0xf5070000
     bb4:	0000000d 	andeq	r0, r0, sp
     bb8:	000d8c07 	andeq	r8, sp, r7, lsl #24
     bbc:	02070100 	andeq	r0, r7, #0, 2
     bc0:	0200000e 	andeq	r0, r0, #14
     bc4:	0db00300 	ldceq	3, cr0, [r0]
     bc8:	db040000 	blle	100bd0 <isr_vectors-0x7eff430>
     bcc:	00010603 	andeq	r0, r1, r3, lsl #12
     bd0:	042c0800 	strteq	r0, [ip], #-2048	; 0xfffff800
     bd4:	d809010a 	stmdale	r9, {r1, r3, r8}
     bd8:	09000001 	stmdbeq	r0, {r0}
     bdc:	00000196 	muleq	r0, r6, r1
     be0:	17010c04 	strne	r0, [r1, -r4, lsl #24]
     be4:	0000009b 	muleq	r0, fp, r0
     be8:	00b90900 	adcseq	r0, r9, r0, lsl #18
     bec:	0d040000 	stceq	0, cr0, [r4, #-0]
     bf0:	009b1701 	addseq	r1, fp, r1, lsl #14
     bf4:	09040000 	stmdbeq	r4, {}	; <UNPREDICTABLE>
     bf8:	00000741 	andeq	r0, r0, r1, asr #14
     bfc:	17010e04 	strne	r0, [r1, -r4, lsl #28]
     c00:	0000009b 	muleq	r0, fp, r0
     c04:	00100908 	andseq	r0, r0, r8, lsl #18
     c08:	0f040000 	svceq	0x00040000
     c0c:	009b1701 	addseq	r1, fp, r1, lsl #14
     c10:	0a0c0000 	beq	300c18 <isr_vectors-0x7cff3e8>
     c14:	00524449 	subseq	r4, r2, r9, asr #8
     c18:	17011004 	strne	r1, [r1, -r4]
     c1c:	0000009b 	muleq	r0, fp, r0
     c20:	444f0a10 	strbmi	r0, [pc], #-2576	; c28 <isr_vectors-0x7fff3d8>
     c24:	11040052 	qaddne	r0, r2, r4
     c28:	009b1701 	addseq	r1, fp, r1, lsl #14
     c2c:	09140000 	ldmdbeq	r4, {}	; <UNPREDICTABLE>
     c30:	00000209 	andeq	r0, r0, r9, lsl #4
     c34:	17011204 	strne	r1, [r1, -r4, lsl #4]
     c38:	0000009b 	muleq	r0, fp, r0
     c3c:	00160918 	andseq	r0, r6, r8, lsl r9
     c40:	13040000 	movwne	r0, #16384	; 0x4000
     c44:	009b1701 	addseq	r1, fp, r1, lsl #14
     c48:	091c0000 	ldmdbeq	ip, {}	; <UNPREDICTABLE>
     c4c:	000007bb 			; <UNDEFINED> instruction: 0x000007bb
     c50:	17011404 	strne	r1, [r1, -r4, lsl #8]
     c54:	0000009b 	muleq	r0, fp, r0
     c58:	07a20920 	streq	r0, [r2, r0, lsr #18]!
     c5c:	15040000 	strne	r0, [r4, #-0]
     c60:	009b1701 	addseq	r1, fp, r1, lsl #14
     c64:	0a240000 	beq	900c6c <isr_vectors-0x76ff394>
     c68:	00525242 	subseq	r5, r2, r2, asr #4
     c6c:	17011604 	strne	r1, [r1, -r4, lsl #12]
     c70:	0000009b 	muleq	r0, fp, r0
     c74:	580b0028 	stmdapl	fp, {r3, r5}
     c78:	0400000a 	streq	r0, [r0], #-10
     c7c:	33030118 	movwcc	r0, #12568	; 0x3118
     c80:	0c000001 	stceq	0, cr0, [r0], {1}
     c84:	0001d804 	andeq	sp, r1, r4, lsl #16
     c88:	0cb40300 	ldceq	3, cr0, [r4]
     c8c:	13050000 	movwne	r0, #20480	; 0x5000
     c90:	0000750d 	andeq	r7, r0, sp, lsl #10
     c94:	0de60d00 	stcleq	13, cr0, [r6]
     c98:	13010000 	movwne	r0, #4096	; 0x1000
     c9c:	00044206 	andeq	r4, r4, r6, lsl #4
     ca0:	00002608 	andeq	r2, r0, r8, lsl #12
     ca4:	3b9c0100 	blcc	fe7010ac <_endOfBss+0xde701074>
     ca8:	0e000002 	cdpeq	0, 0, cr0, cr0, cr2, {0}
     cac:	00000df0 	strdeq	r0, [r0], -r0	; <UNPREDICTABLE>
     cb0:	e51f1301 	ldr	r1, [pc, #-769]	; 9b7 <isr_vectors-0x7fff649>
     cb4:	02000001 	andeq	r0, r0, #1
     cb8:	700f7491 	mulvc	pc, r1, r4	; <UNPREDICTABLE>
     cbc:	01006e69 	tsteq	r0, r9, ror #28
     cc0:	00832d13 	addeq	r2, r3, r3, lsl sp
     cc4:	91020000 	mrsls	r0, (UNDEF: 2)
     cc8:	0cf30e73 	ldcleq	14, cr0, [r3], #460	; 0x1cc
     ccc:	13010000 	movwne	r0, #4096	; 0x1000
     cd0:	0001eb37 	andeq	lr, r1, r7, lsr fp
     cd4:	6c910200 	lfmvs	f0, 4, [r1], {0}
     cd8:	0e260d00 	cdpeq	13, 2, cr0, cr6, cr0, {0}
     cdc:	0e010000 	cdpeq	0, 0, cr0, cr1, cr0, {0}
     ce0:	00041806 	andeq	r1, r4, r6, lsl #16
     ce4:	00002a08 	andeq	r2, r0, r8, lsl #20
     ce8:	7f9c0100 	svcvc	0x009c0100
     cec:	0e000002 	cdpeq	0, 0, cr0, cr0, cr2, {0}
     cf0:	00000df0 	strdeq	r0, [r0], -r0	; <UNPREDICTABLE>
     cf4:	e5270e01 	str	r0, [r7, #-3585]!	; 0xfffff1ff
     cf8:	02000001 	andeq	r0, r0, #1
     cfc:	700f7491 	mulvc	pc, r1, r4	; <UNPREDICTABLE>
     d00:	01006e69 	tsteq	r0, r9, ror #28
     d04:	0083350e 	addeq	r3, r3, lr, lsl #10
     d08:	91020000 	mrsls	r0, (UNDEF: 2)
     d0c:	0dd70e73 	ldcleq	14, cr0, [r7, #460]	; 0x1cc
     d10:	0e010000 	cdpeq	0, 0, cr0, cr1, cr0, {0}
     d14:	00012751 	andeq	r2, r1, r1, asr r7
     d18:	72910200 	addsvc	r0, r1, #0, 4
     d1c:	0da40d00 	stceq	13, cr0, [r4]
     d20:	09010000 	stmdbeq	r1, {}	; <UNPREDICTABLE>
     d24:	0003ee06 	andeq	lr, r3, r6, lsl #28
     d28:	00002a08 	andeq	r2, r0, r8, lsl #20
     d2c:	c39c0100 	orrsgt	r0, ip, #0, 2
     d30:	0e000002 	cdpeq	0, 0, cr0, cr0, cr2, {0}
     d34:	00000df0 	strdeq	r0, [r0], -r0	; <UNPREDICTABLE>
     d38:	e5210901 	str	r0, [r1, #-2305]!	; 0xfffff6ff
     d3c:	02000001 	andeq	r0, r0, #1
     d40:	700f7491 	mulvc	pc, r1, r4	; <UNPREDICTABLE>
     d44:	01006e69 	tsteq	r0, r9, ror #28
     d48:	00832f09 	addeq	r2, r3, r9, lsl #30
     d4c:	91020000 	mrsls	r0, (UNDEF: 2)
     d50:	0d7c0e73 	ldcleq	14, cr0, [ip, #-460]!	; 0xfffffe34
     d54:	09010000 	stmdbeq	r1, {}	; <UNPREDICTABLE>
     d58:	0000fa45 	andeq	pc, r0, r5, asr #20
     d5c:	72910200 	addsvc	r0, r1, #0, 4
     d60:	0dc71000 	stcleq	0, cr1, [r7]
     d64:	04010000 	streq	r0, [r1], #-0
     d68:	0003c806 	andeq	ip, r3, r6, lsl #16
     d6c:	00002608 	andeq	r2, r0, r8, lsl #12
     d70:	0e9c0100 	fmleqe	f0, f4, f0
     d74:	00000df0 	strdeq	r0, [r0], -r0	; <UNPREDICTABLE>
     d78:	e5200401 	str	r0, [r0, #-1025]!	; 0xfffffbff
     d7c:	02000001 	andeq	r0, r0, #1
     d80:	700f7491 	mulvc	pc, r1, r4	; <UNPREDICTABLE>
     d84:	01006e69 	tsteq	r0, r9, ror #28
     d88:	00832e04 	addeq	r2, r3, r4, lsl #28
     d8c:	91020000 	mrsls	r0, (UNDEF: 2)
     d90:	0dd20e73 	ldcleq	14, cr0, [r2, #460]	; 0x1cc
     d94:	04010000 	streq	r0, [r1], #-0
     d98:	0000c743 	andeq	ip, r0, r3, asr #14
     d9c:	72910200 	addsvc	r0, r1, #0, 4
     da0:	02490000 	subeq	r0, r9, #0
     da4:	00040000 	andeq	r0, r4, r0
     da8:	00000368 	andeq	r0, r0, r8, ror #6
     dac:	03110104 	tsteq	r1, #4, 2
     db0:	6d0c0000 	stcvs	0, cr0, [ip, #-0]
     db4:	0000000e 	andeq	r0, r0, lr
     db8:	68000009 	stmdavs	r0, {r0, r3}
     dbc:	28080004 	stmdacs	r8, {r2}
     dc0:	54000000 	strpl	r0, [r0], #-0
     dc4:	02000004 	andeq	r0, r0, #4
     dc8:	08c70601 	stmiaeq	r7, {r0, r9, sl}^
     dcc:	01020000 	mrseq	r0, (UNDEF: 2)
     dd0:	0008c508 	andeq	ip, r8, r8, lsl #10
     dd4:	05020200 	streq	r0, [r2, #-512]	; 0xfffffe00
     dd8:	00000922 	andeq	r0, r0, r2, lsr #18
     ddc:	51070202 	tstpl	r7, r2, lsl #4
     de0:	02000005 	andeq	r0, r0, #5
     de4:	01f40504 	mvnseq	r0, r4, lsl #10
     de8:	9b030000 	blls	c0df0 <isr_vectors-0x7f3f210>
     dec:	02000003 	andeq	r0, r0, #3
     df0:	0054194f 	subseq	r1, r4, pc, asr #18
     df4:	04020000 	streq	r0, [r2], #-0
     df8:	0001a107 	andeq	sl, r1, r7, lsl #2
     dfc:	05080200 	streq	r0, [r8, #-512]	; 0xfffffe00
     e00:	000001ef 	andeq	r0, r0, pc, ror #3
     e04:	9c070802 	stcls	8, cr0, [r7], {2}
     e08:	04000001 	streq	r0, [r0], #-1
     e0c:	6e690504 	cdpvs	5, 6, cr0, cr9, cr4, {0}
     e10:	04020074 	streq	r0, [r2], #-116	; 0xffffff8c
     e14:	0001a607 	andeq	sl, r1, r7, lsl #12
     e18:	039d0300 	orrseq	r0, sp, #0, 6
     e1c:	30030000 	andcc	r0, r3, r0
     e20:	00004814 	andeq	r4, r0, r4, lsl r8
     e24:	00770500 	rsbseq	r0, r7, r0, lsl #10
     e28:	07060000 	streq	r0, [r6, -r0]
     e2c:	00002c01 	andeq	r2, r0, r1, lsl #24
     e30:	01b60400 			; <UNDEFINED> instruction: 0x01b60400
     e34:	000000a3 	andeq	r0, r0, r3, lsr #1
     e38:	000ac907 	andeq	ip, sl, r7, lsl #18
     e3c:	d9070100 	stmdble	r7, {r8}
     e40:	0200000a 	andeq	r0, r0, #10
     e44:	0edf0300 	cdpeq	3, 13, cr0, cr15, cr0, {0}
     e48:	b9040000 	stmdblt	r4, {}	; <UNPREDICTABLE>
     e4c:	00008803 	andeq	r8, r0, r3, lsl #16
     e50:	04600800 	strbteq	r0, [r0], #-2048	; 0xfffff800
     e54:	0a09011a 	beq	2412c4 <isr_vectors-0x7dbed3c>
     e58:	09000002 	stmdbeq	r0, {r1}
     e5c:	00315243 	eorseq	r5, r1, r3, asr #4
     e60:	17011c04 	strne	r1, [r1, -r4, lsl #24]
     e64:	00000083 	andeq	r0, r0, r3, lsl #1
     e68:	52430900 	subpl	r0, r3, #0, 18
     e6c:	1d040032 	stcne	0, cr0, [r4, #-200]	; 0xffffff38
     e70:	00831701 	addeq	r1, r3, r1, lsl #14
     e74:	09040000 	stmdbeq	r4, {}	; <UNPREDICTABLE>
     e78:	00335243 	eorseq	r5, r3, r3, asr #4
     e7c:	17011e04 	strne	r1, [r1, -r4, lsl #28]
     e80:	00000083 	andeq	r0, r0, r3, lsl #1
     e84:	52430908 	subpl	r0, r3, #8, 18	; 0x20000
     e88:	1f040034 	svcne	0x00040034
     e8c:	00831701 	addeq	r1, r3, r1, lsl #14
     e90:	090c0000 	stmdbeq	ip, {}	; <UNPREDICTABLE>
     e94:	00315253 	eorseq	r5, r1, r3, asr r2
     e98:	17012004 	strne	r2, [r1, -r4]
     e9c:	00000083 	andeq	r0, r0, r3, lsl #1
     ea0:	52530910 	subspl	r0, r3, #16, 18	; 0x40000
     ea4:	21040032 	tstcs	r4, r2, lsr r0
     ea8:	00831701 	addeq	r1, r3, r1, lsl #14
     eac:	09140000 	ldmdbeq	r4, {}	; <UNPREDICTABLE>
     eb0:	00524353 	subseq	r4, r2, r3, asr r3
     eb4:	17012204 	strne	r2, [r1, -r4, lsl #4]
     eb8:	00000083 	andeq	r0, r0, r3, lsl #1
     ebc:	0e790a18 			; <UNDEFINED> instruction: 0x0e790a18
     ec0:	23040000 	movwcs	r0, #16384	; 0x4000
     ec4:	00771701 	rsbseq	r1, r7, r1, lsl #14
     ec8:	0a1c0000 	beq	700ed0 <isr_vectors-0x78ff130>
     ecc:	00000ebb 			; <UNDEFINED> instruction: 0x00000ebb
     ed0:	17012404 	strne	r2, [r1, -r4, lsl #8]
     ed4:	00000083 	andeq	r0, r0, r3, lsl #1
     ed8:	0f1b0a20 	svceq	0x001b0a20
     edc:	25040000 	strcs	r0, [r4, #-0]
     ee0:	00831701 	addeq	r1, r3, r1, lsl #14
     ee4:	0a240000 	beq	900eec <isr_vectors-0x76ff114>
     ee8:	00000ec1 	andeq	r0, r0, r1, asr #29
     eec:	17012604 	strne	r2, [r1, -r4, lsl #12]
     ef0:	00000083 	andeq	r0, r0, r3, lsl #1
     ef4:	0f210a28 	svceq	0x00210a28
     ef8:	27040000 	strcs	r0, [r4, -r0]
     efc:	00831701 	addeq	r1, r3, r1, lsl #14
     f00:	0a2c0000 	beq	b00f08 <isr_vectors-0x74ff0f8>
     f04:	00000ec7 	andeq	r0, r0, r7, asr #29
     f08:	17012804 	strne	r2, [r1, -r4, lsl #16]
     f0c:	00000083 	andeq	r0, r0, r3, lsl #1
     f10:	0f270a30 	svceq	0x00270a30
     f14:	29040000 	stmdbcs	r4, {}	; <UNPREDICTABLE>
     f18:	00831701 	addeq	r1, r3, r1, lsl #14
     f1c:	0a340000 	beq	d00f24 <isr_vectors-0x72ff0dc>
     f20:	00000ecd 	andeq	r0, r0, sp, asr #29
     f24:	17012a04 	strne	r2, [r1, -r4, lsl #20]
     f28:	00000083 	andeq	r0, r0, r3, lsl #1
     f2c:	0f2d0a38 	svceq	0x002d0a38
     f30:	2b040000 	blcs	100f38 <isr_vectors-0x7eff0c8>
     f34:	00831701 	addeq	r1, r3, r1, lsl #14
     f38:	0a3c0000 	beq	f00f40 <isr_vectors-0x70ff0c0>
     f3c:	00000ed3 	ldrdeq	r0, [r0], -r3
     f40:	17012c04 	strne	r2, [r1, -r4, lsl #24]
     f44:	00000083 	andeq	r0, r0, r3, lsl #1
     f48:	0f330a40 	svceq	0x00330a40
     f4c:	2d040000 	stccs	0, cr0, [r4, #-0]
     f50:	00831701 	addeq	r1, r3, r1, lsl #14
     f54:	0a440000 	beq	1100f5c <isr_vectors-0x6eff0a4>
     f58:	00000e38 	andeq	r0, r0, r8, lsr lr
     f5c:	17012e04 	strne	r2, [r1, -r4, lsl #28]
     f60:	00000077 	andeq	r0, r0, r7, ror r0
     f64:	0e8f0a48 			; <UNDEFINED> instruction: 0x0e8f0a48
     f68:	2f040000 	svccs	0x00040000
     f6c:	00771701 	rsbseq	r1, r7, r1, lsl #14
     f70:	0a4c0000 	beq	1300f78 <isr_vectors-0x6cff088>
     f74:	00000f05 	andeq	r0, r0, r5, lsl #30
     f78:	17013004 	strne	r3, [r1, -r4]
     f7c:	00000077 	andeq	r0, r0, r7, ror r0
     f80:	0ea50a50 			; <UNDEFINED> instruction: 0x0ea50a50
     f84:	31040000 	mrscc	r0, (UNDEF: 4)
     f88:	00771701 	rsbseq	r1, r7, r1, lsl #14
     f8c:	0a540000 	beq	1500f94 <isr_vectors-0x6aff06c>
     f90:	00000ed9 	ldrdeq	r0, [r0], -r9
     f94:	17013204 	strne	r3, [r1, -r4, lsl #4]
     f98:	00000083 	andeq	r0, r0, r3, lsl #1
     f9c:	0f390a58 	svceq	0x00390a58
     fa0:	33040000 	movwcc	r0, #16384	; 0x4000
     fa4:	00831701 	addeq	r1, r3, r1, lsl #14
     fa8:	005c0000 	subseq	r0, ip, r0
     fac:	000ef80b 	andeq	pc, lr, fp, lsl #16
     fb0:	01340400 	teqeq	r4, r0, lsl #8
     fb4:	0000af03 	andeq	sl, r0, r3, lsl #30
     fb8:	57500c00 	ldrbpl	r0, [r0, -r0, lsl #24]
     fbc:	57040052 	smlsdpl	r4, r2, r0, r0
     fc0:	02241801 	eoreq	r1, r4, #65536	; 0x10000
     fc4:	040d0000 	streq	r0, [sp], #-0
     fc8:	0000020a 	andeq	r0, r0, sl, lsl #4
     fcc:	000e4e0e 	andeq	r4, lr, lr, lsl #28
     fd0:	06040100 	streq	r0, [r4], -r0, lsl #2
     fd4:	08000468 	stmdaeq	r0, {r3, r5, r6, sl}
     fd8:	00000028 	andeq	r0, r0, r8, lsr #32
     fdc:	670f9c01 	strvs	r9, [pc, -r1, lsl #24]
     fe0:	0100000e 	tsteq	r0, lr
     fe4:	00a33804 	adceq	r3, r3, r4, lsl #16
     fe8:	91020000 	mrsls	r0, (UNDEF: 2)
     fec:	ea000077 	b	11d0 <isr_vectors-0x7ffee30>
     ff0:	04000008 	streq	r0, [r0], #-8
     ff4:	00044b00 	andeq	r4, r4, r0, lsl #22
     ff8:	11010400 	tstne	r1, r0, lsl #8
     ffc:	0c000003 	stceq	0, cr0, [r0], {3}
    1000:	000010e6 	andeq	r1, r0, r6, ror #1
    1004:	00000900 	andeq	r0, r0, r0, lsl #18
    1008:	08000490 	stmdaeq	r0, {r4, r7, sl}
    100c:	000002b0 			; <UNDEFINED> instruction: 0x000002b0
    1010:	00000584 	andeq	r0, r0, r4, lsl #11
    1014:	000cb402 	andeq	fp, ip, r2, lsl #8
    1018:	0d130200 	lfmeq	f0, 4, [r3, #-0]
    101c:	00000031 	andeq	r0, r0, r1, lsr r0
    1020:	69050403 	stmdbvs	r5, {r0, r1, sl}
    1024:	0400746e 	streq	r7, [r0], #-1134	; 0xfffffb92
    1028:	08c70601 	stmiaeq	r7, {r0, r9, sl}^
    102c:	01040000 	mrseq	r0, (UNDEF: 4)
    1030:	0008c508 	andeq	ip, r8, r8, lsl #10
    1034:	05020400 	streq	r0, [r2, #-1024]	; 0xfffffc00
    1038:	00000922 	andeq	r0, r0, r2, lsr #18
    103c:	51070204 	tstpl	r7, r4, lsl #4
    1040:	04000005 	streq	r0, [r0], #-5
    1044:	01f40504 	mvnseq	r0, r4, lsl #10
    1048:	9b020000 	blls	81050 <isr_vectors-0x7f7efb0>
    104c:	03000003 	movweq	r0, #3
    1050:	0067194f 	rsbeq	r1, r7, pc, asr #18
    1054:	04040000 	streq	r0, [r4], #-0
    1058:	0001a107 	andeq	sl, r1, r7, lsl #2
    105c:	05080400 	streq	r0, [r8, #-1024]	; 0xfffffc00
    1060:	000001ef 	andeq	r0, r0, pc, ror #3
    1064:	9c070804 	stcls	8, cr0, [r7], {4}
    1068:	04000001 	streq	r0, [r0], #-1
    106c:	01a60704 			; <UNDEFINED> instruction: 0x01a60704
    1070:	9d020000 	stcls	0, cr0, [r2, #-0]
    1074:	04000003 	streq	r0, [r0], #-3
    1078:	005b1430 	subseq	r1, fp, r0, lsr r4
    107c:	83050000 	movwhi	r0, #20480	; 0x5000
    1080:	06000000 	streq	r0, [r0], -r0
    1084:	003f0107 	eorseq	r0, pc, r7, lsl #2
    1088:	15050000 	strne	r0, [r5, #-0]
    108c:	0000bb01 	andeq	fp, r0, r1, lsl #22
    1090:	05740700 	ldrbeq	r0, [r4, #-1792]!	; 0xfffff900
    1094:	07000000 	streq	r0, [r0, -r0]
    1098:	00000164 	andeq	r0, r0, r4, ror #2
    109c:	07a70701 	streq	r0, [r7, r1, lsl #14]!
    10a0:	07020000 	streq	r0, [r2, -r0]
    10a4:	000005e4 	andeq	r0, r0, r4, ror #11
    10a8:	fb020003 	blx	810be <isr_vectors-0x7f7ef42>
    10ac:	0500000f 	streq	r0, [r0, #-15]
    10b0:	0094031a 	addseq	r0, r4, sl, lsl r3
    10b4:	07060000 	streq	r0, [r6, -r0]
    10b8:	00003f01 	andeq	r3, r0, r1, lsl #30
    10bc:	011d0500 	tsteq	sp, r0, lsl #10
    10c0:	0000010c 	andeq	r0, r0, ip, lsl #2
    10c4:	00005907 	andeq	r5, r0, r7, lsl #18
    10c8:	42070000 	andmi	r0, r7, #0
    10cc:	08000008 	stmdaeq	r0, {r3}
    10d0:	00086307 	andeq	r6, r8, r7, lsl #6
    10d4:	a4070900 	strge	r0, [r7], #-2304	; 0xfffff700
    10d8:	0a000008 	beq	1100 <isr_vectors-0x7ffef00>
    10dc:	00064b07 	andeq	r4, r6, r7, lsl #22
    10e0:	27070b00 	strcs	r0, [r7, -r0, lsl #22]
    10e4:	0c000002 	stceq	0, cr0, [r0], {2}
    10e8:	00004607 	andeq	r4, r0, r7, lsl #12
    10ec:	f9070d00 			; <UNDEFINED> instruction: 0xf9070d00
    10f0:	0e000002 	cdpeq	0, 0, cr0, cr0, cr2, {0}
    10f4:	00025907 	andeq	r5, r2, r7, lsl #18
    10f8:	02000f00 	andeq	r0, r0, #0, 30
    10fc:	00000f99 	muleq	r0, r9, pc	; <UNPREDICTABLE>
    1100:	c7032705 	strgt	r2, [r3, -r5, lsl #14]
    1104:	06000000 	streq	r0, [r0], -r0
    1108:	003f0107 	eorseq	r0, pc, r7, lsl #2
    110c:	2a050000 	bcs	141114 <isr_vectors-0x7ebeeec>
    1110:	00014501 	andeq	r4, r1, r1, lsl #10
    1114:	02e80700 	rsceq	r0, r8, #0, 14
    1118:	07000000 	streq	r0, [r0, -r0]
    111c:	000007ec 	andeq	r0, r0, ip, ror #15
    1120:	07fe0704 	ldrbeq	r0, [lr, r4, lsl #14]!
    1124:	07050000 	streq	r0, [r5, -r0]
    1128:	00000820 	andeq	r0, r0, r0, lsr #16
    112c:	09750706 	ldmdbeq	r5!, {r1, r2, r8, r9, sl}^
    1130:	00070000 	andeq	r0, r7, r0
    1134:	00103202 	andseq	r3, r0, r2, lsl #4
    1138:	03300500 	teqeq	r0, #0, 10
    113c:	00000118 	andeq	r0, r0, r8, lsl r1
    1140:	3f010706 	svccc	0x00010706
    1144:	05000000 	streq	r0, [r0, #-0]
    1148:	017e0133 	cmneq	lr, r3, lsr r1
    114c:	0a070000 	beq	1c1154 <isr_vectors-0x7e3eeac>
    1150:	00000006 	andeq	r0, r0, r6
    1154:	0005c007 	andeq	ip, r5, r7
    1158:	d2070400 	andle	r0, r7, #0, 8
    115c:	05000005 	streq	r0, [r0, #-5]
    1160:	0005f807 	andeq	pc, r5, r7, lsl #16
    1164:	1b070600 	blne	1c296c <isr_vectors-0x7e3d694>
    1168:	07000007 	streq	r0, [r0, -r7]
    116c:	10b70200 	adcsne	r0, r7, r0, lsl #4
    1170:	39050000 	stmdbcc	r5, {}	; <UNPREDICTABLE>
    1174:	00015103 	andeq	r5, r1, r3, lsl #2
    1178:	01070600 	tsteq	r7, r0, lsl #12
    117c:	0000003f 	andeq	r0, r0, pc, lsr r0
    1180:	b1013c05 	tstlt	r1, r5, lsl #24
    1184:	07000001 	streq	r0, [r0, -r1]
    1188:	00000a30 	andeq	r0, r0, r0, lsr sl
    118c:	029c0700 	addseq	r0, ip, #0, 14
    1190:	07010000 	streq	r0, [r1, -r0]
    1194:	00000947 	andeq	r0, r0, r7, asr #18
    1198:	037e0702 	cmneq	lr, #524288	; 0x80000
    119c:	00030000 	andeq	r0, r3, r0
    11a0:	000fee02 	andeq	lr, pc, r2, lsl #28
    11a4:	03410500 	movteq	r0, #5376	; 0x1500
    11a8:	0000018a 	andeq	r0, r0, sl, lsl #3
    11ac:	3f010706 	svccc	0x00010706
    11b0:	05000000 	streq	r0, [r0, #-0]
    11b4:	01fc0144 	mvnseq	r0, r4, asr #2
    11b8:	08070000 	stmdaeq	r7, {}	; <UNPREDICTABLE>
    11bc:	0000000a 	andeq	r0, r0, sl
    11c0:	000c2107 	andeq	r2, ip, r7, lsl #2
    11c4:	30070100 	andcc	r0, r7, r0, lsl #2
    11c8:	0200000c 	andeq	r0, r0, #12
    11cc:	000c3f07 	andeq	r3, ip, r7, lsl #30
    11d0:	4e070300 	cdpmi	3, 0, cr0, cr7, cr0, {0}
    11d4:	0400000c 	streq	r0, [r0], #-12
    11d8:	000c5d07 	andeq	r5, ip, r7, lsl #26
    11dc:	6c070500 	cfstr32vs	mvfx0, [r7], {-0}
    11e0:	0600000c 	streq	r0, [r0], -ip
    11e4:	000c7b07 	andeq	r7, ip, r7, lsl #22
    11e8:	02000700 	andeq	r0, r0, #0, 14
    11ec:	000010a2 	andeq	r1, r0, r2, lsr #1
    11f0:	bd034d05 	stclt	13, cr4, [r3, #-20]	; 0xffffffec
    11f4:	06000001 	streq	r0, [r0], -r1
    11f8:	003f0107 	eorseq	r0, pc, r7, lsl #2
    11fc:	50050000 	andpl	r0, r5, r0
    1200:	0003f101 	andeq	pc, r3, r1, lsl #2
    1204:	05a20700 	streq	r0, [r2, #1792]!	; 0x700
    1208:	07080000 	streq	r0, [r8, -r0]
    120c:	000005b1 			; <UNDEFINED> instruction: 0x000005b1
    1210:	04940709 	ldreq	r0, [r4], #1801	; 0x709
    1214:	070a0000 	streq	r0, [sl, -r0]
    1218:	000004a4 	andeq	r0, r0, r4, lsr #9
    121c:	04b4070b 	ldrteq	r0, [r4], #1803	; 0x70b
    1220:	070c0000 	streq	r0, [ip, -r0]
    1224:	000004c4 	andeq	r0, r0, r4, asr #9
    1228:	04d4070d 	ldrbeq	r0, [r4], #1805	; 0x70d
    122c:	070e0000 	streq	r0, [lr, -r0]
    1230:	000004e4 	andeq	r0, r0, r4, ror #9
    1234:	04f4070f 	ldrbteq	r0, [r4], #1807	; 0x70f
    1238:	07100000 	ldreq	r0, [r0, -r0]
    123c:	00000504 	andeq	r0, r0, r4, lsl #10
    1240:	05140711 	ldreq	r0, [r4, #-1809]	; 0xfffff8ef
    1244:	07120000 	ldreq	r0, [r2, -r0]
    1248:	00000524 	andeq	r0, r0, r4, lsr #10
    124c:	061b0713 			; <UNDEFINED> instruction: 0x061b0713
    1250:	07140000 	ldreq	r0, [r4, -r0]
    1254:	0000062b 	andeq	r0, r0, fp, lsr #12
    1258:	063b0715 			; <UNDEFINED> instruction: 0x063b0715
    125c:	07160000 	ldreq	r0, [r6, -r0]
    1260:	000002bb 			; <UNDEFINED> instruction: 0x000002bb
    1264:	065d0717 			; <UNDEFINED> instruction: 0x065d0717
    1268:	07180000 	ldreq	r0, [r8, -r0]
    126c:	0000066d 	andeq	r0, r0, sp, ror #12
    1270:	067d0719 			; <UNDEFINED> instruction: 0x067d0719
    1274:	071a0000 	ldreq	r0, [sl, -r0]
    1278:	0000068d 	andeq	r0, r0, sp, lsl #13
    127c:	069d071b 			; <UNDEFINED> instruction: 0x069d071b
    1280:	071c0000 	ldreq	r0, [ip, -r0]
    1284:	000006ad 	andeq	r0, r0, sp, lsr #13
    1288:	0853071d 	ldmdaeq	r3, {r0, r2, r3, r4, r8, r9, sl}^
    128c:	071e0000 	ldreq	r0, [lr, -r0]
    1290:	00000420 	andeq	r0, r0, r0, lsr #8
    1294:	0874071f 	ldmdaeq	r4!, {r0, r1, r2, r3, r4, r8, r9, sl}^
    1298:	07200000 	streq	r0, [r0, -r0]!
    129c:	00000884 	andeq	r0, r0, r4, lsl #17
    12a0:	08940721 	ldmeq	r4, {r0, r5, r8, r9, sl}
    12a4:	07220000 	streq	r0, [r2, -r0]!
    12a8:	00000462 	andeq	r0, r0, r2, ror #8
    12ac:	08b50723 	ldmeq	r5!, {r0, r1, r5, r8, r9, sl}
    12b0:	07240000 	streq	r0, [r4, -r0]!
    12b4:	00000472 	andeq	r0, r0, r2, ror r4
    12b8:	08d30725 	ldmeq	r3, {r0, r2, r5, r8, r9, sl}^
    12bc:	07260000 	streq	r0, [r6, -r0]!
    12c0:	000008e3 	andeq	r0, r0, r3, ror #17
    12c4:	09880727 	stmibeq	r8, {r0, r1, r2, r5, r8, r9, sl}
    12c8:	07280000 	streq	r0, [r8, -r0]!
    12cc:	00000998 	muleq	r0, r8, r9
    12d0:	09a80729 	stmibeq	r8!, {r0, r3, r5, r8, r9, sl}
    12d4:	072a0000 	streq	r0, [sl, -r0]!
    12d8:	000009b8 			; <UNDEFINED> instruction: 0x000009b8
    12dc:	09c8072b 	stmibeq	r8, {r0, r1, r3, r5, r8, r9, sl}^
    12e0:	072c0000 	streq	r0, [ip, -r0]!
    12e4:	000009d8 	ldrdeq	r0, [r0], -r8
    12e8:	09e8072d 	stmibeq	r8!, {r0, r2, r3, r5, r8, r9, sl}^
    12ec:	072e0000 	streq	r0, [lr, -r0]!
    12f0:	000009f8 	strdeq	r0, [r0], -r8
    12f4:	0810072f 	ldmdaeq	r0, {r0, r1, r2, r3, r5, r8, r9, sl}
    12f8:	07300000 	ldreq	r0, [r0, -r0]!
    12fc:	00000a20 	andeq	r0, r0, r0, lsr #20
    1300:	0b410731 	bleq	1042fcc <isr_vectors-0x6fbd034>
    1304:	07320000 	ldreq	r0, [r2, -r0]!
    1308:	00000b51 	andeq	r0, r0, r1, asr fp
    130c:	0b610733 	bleq	1842fe0 <isr_vectors-0x67bd020>
    1310:	07340000 	ldreq	r0, [r4, -r0]!
    1314:	00000b71 	andeq	r0, r0, r1, ror fp
    1318:	0b810735 	bleq	fe042ff4 <_endOfBss+0xde042fbc>
    131c:	07360000 	ldreq	r0, [r6, -r0]!
    1320:	00000b91 	muleq	r0, r1, fp
    1324:	0ba10737 	bleq	fe843008 <_endOfBss+0xde842fd0>
    1328:	07380000 	ldreq	r0, [r8, -r0]!
    132c:	00000bb1 			; <UNDEFINED> instruction: 0x00000bb1
    1330:	0bc10739 	bleq	ff04301c <_endOfBss+0xdf042fe4>
    1334:	073a0000 	ldreq	r0, [sl, -r0]!
    1338:	00000bd1 	ldrdeq	r0, [r0], -r1
    133c:	001b073b 	andseq	r0, fp, fp, lsr r7
    1340:	073c0000 	ldreq	r0, [ip, -r0]!
    1344:	0000002b 	andeq	r0, r0, fp, lsr #32
    1348:	01ba073d 			; <UNDEFINED> instruction: 0x01ba073d
    134c:	073e0000 	ldreq	r0, [lr, -r0]!
    1350:	000001ca 	andeq	r0, r0, sl, asr #3
    1354:	01da073f 	bicseq	r0, sl, pc, lsr r7
    1358:	07400000 	strbeq	r0, [r0, -r0]
    135c:	00000069 	andeq	r0, r0, r9, rrx
    1360:	00790741 	rsbseq	r0, r9, r1, asr #14
    1364:	07420000 	strbeq	r0, [r2, -r0]
    1368:	00000089 	andeq	r0, r0, r9, lsl #1
    136c:	00990743 	addseq	r0, r9, r3, asr #14
    1370:	07560000 	ldrbeq	r0, [r6, -r0]
    1374:	000000a9 	andeq	r0, r0, r9, lsr #1
    1378:	02170745 	andseq	r0, r7, #18087936	; 0x1140000
    137c:	07460000 	strbeq	r0, [r6, -r0]
    1380:	000007dc 	ldrdeq	r0, [r0], -ip
    1384:	02390747 	eorseq	r0, r9, #18612224	; 0x11c0000
    1388:	07480000 	strbeq	r0, [r8, -r0]
    138c:	00000249 	andeq	r0, r0, r9, asr #4
    1390:	05640749 	strbeq	r0, [r4, #-1865]!	; 0xfffff8b7
    1394:	074a0000 	strbeq	r0, [sl, -r0]
    1398:	0000026c 	andeq	r0, r0, ip, ror #4
    139c:	027c074b 	rsbseq	r0, ip, #19660800	; 0x12c0000
    13a0:	074c0000 	strbeq	r0, [ip, -r0]
    13a4:	0000028c 	andeq	r0, r0, ip, lsl #5
    13a8:	0592074d 	ldreq	r0, [r2, #1869]	; 0x74d
    13ac:	074e0000 	strbeq	r0, [lr, -r0]
    13b0:	000002ab 	andeq	r0, r0, fp, lsr #5
    13b4:	03b0074f 	movseq	r0, #20709376	; 0x13c0000
    13b8:	07500000 	ldrbeq	r0, [r0, -r0]
    13bc:	000003c0 	andeq	r0, r0, r0, asr #7
    13c0:	03d00751 	bicseq	r0, r0, #21233664	; 0x1440000
    13c4:	07520000 	ldrbeq	r0, [r2, -r0]
    13c8:	000003e0 	andeq	r0, r0, r0, ror #7
    13cc:	03f00753 	mvnseq	r0, #21757952	; 0x14c0000
    13d0:	07540000 	ldrbeq	r0, [r4, -r0]
    13d4:	00000400 	andeq	r0, r0, r0, lsl #8
    13d8:	04100755 	ldreq	r0, [r0], #-1877	; 0xfffff8ab
    13dc:	00560000 	subseq	r0, r6, r0
    13e0:	0010ce02 	andseq	ip, r0, r2, lsl #28
    13e4:	03a00500 	moveq	r0, #0, 10
    13e8:	00000208 	andeq	r0, r0, r8, lsl #4
    13ec:	3f010706 	svccc	0x00010706
    13f0:	05000000 	streq	r0, [r0, #-0]
    13f4:	042401a3 	strteq	r0, [r4], #-419	; 0xfffffe5d
    13f8:	d0070000 	andle	r0, r7, r0
    13fc:	00000006 	andeq	r0, r0, r6
    1400:	0006df07 	andeq	sp, r6, r7, lsl #30
    1404:	ee070100 	adfs	f0, f7, f0
    1408:	02000006 	andeq	r0, r0, #6
    140c:	0006fd07 	andeq	pc, r6, r7, lsl #26
    1410:	02000300 	andeq	r0, r0, #0, 6
    1414:	00000f3f 	andeq	r0, r0, pc, lsr pc
    1418:	fd03a805 	stc2	8, cr10, [r3, #-20]	; 0xffffffec
    141c:	06000003 	streq	r0, [r0], -r3
    1420:	003f0107 	eorseq	r0, pc, r7, lsl #2
    1424:	ab050000 	blge	14142c <isr_vectors-0x7ebebd4>
    1428:	00046301 	andeq	r6, r4, r1, lsl #6
    142c:	06bd0700 	ldrteq	r0, [sp], r0, lsl #14
    1430:	07000000 	streq	r0, [r0, -r0]
    1434:	0000072e 	andeq	r0, r0, lr, lsr #14
    1438:	0a450701 	beq	1143044 <isr_vectors-0x6ebcfbc>
    143c:	07020000 	streq	r0, [r2, -r0]
    1440:	00000789 	andeq	r0, r0, r9, lsl #15
    1444:	0a890703 	beq	fe243058 <_endOfBss+0xde243020>
    1448:	07040000 	streq	r0, [r4, -r0]
    144c:	00000b01 	andeq	r0, r0, r1, lsl #22
    1450:	72020007 	andvc	r0, r2, #7
    1454:	05000010 	streq	r0, [r0, #-16]
    1458:	043003b2 	ldrteq	r0, [r0], #-946	; 0xfffffc4e
    145c:	a0080000 	andge	r0, r8, r0
    1460:	8809de05 	stmdahi	r9, {r0, r2, r9, sl, fp, ip, lr, pc}
    1464:	09000006 	stmdbeq	r0, {r1, r2}
    1468:	05005243 	streq	r5, [r0, #-579]	; 0xfffffdbd
    146c:	008f17e0 	addeq	r1, pc, r0, ror #15
    1470:	0a000000 	beq	1478 <isr_vectors-0x7ffeb88>
    1474:	00000be1 	andeq	r0, r0, r1, ror #23
    1478:	8f17e105 	svchi	0x0017e105
    147c:	04000000 	streq	r0, [r0], #-0
    1480:	000b370a 	andeq	r3, fp, sl, lsl #14
    1484:	17e20500 	strbne	r0, [r2, r0, lsl #10]!
    1488:	0000008f 	andeq	r0, r0, pc, lsl #1
    148c:	07490a08 	strbeq	r0, [r9, -r8, lsl #20]
    1490:	e3050000 	movw	r0, #20480	; 0x5000
    1494:	00008f17 	andeq	r8, r0, r7, lsl pc
    1498:	300a0c00 	andcc	r0, sl, r0, lsl #24
    149c:	0500000b 	streq	r0, [r0, #-11]
    14a0:	008f17e4 	addeq	r1, pc, r4, ror #15
    14a4:	0a100000 	beq	4014ac <isr_vectors-0x7bfeb54>
    14a8:	000000c0 	andeq	r0, r0, r0, asr #1
    14ac:	8317e505 	tsthi	r7, #20971520	; 0x1400000
    14b0:	14000000 	strne	r0, [r0], #-0
    14b4:	0001ea0a 	andeq	lr, r1, sl, lsl #20
    14b8:	17e60500 	strbne	r0, [r6, r0, lsl #10]!
    14bc:	0000008f 	andeq	r0, r0, pc, lsl #1
    14c0:	038d0a18 	orreq	r0, sp, #24, 20	; 0x18000
    14c4:	e7050000 	str	r0, [r5, -r0]
    14c8:	00008f17 	andeq	r8, r0, r7, lsl pc
    14cc:	fc0a1c00 	stc2	12, cr1, [sl], {-0}
    14d0:	0500000a 	streq	r0, [r0, #-10]
    14d4:	008f17e8 	addeq	r1, pc, r8, ror #15
    14d8:	0a200000 	beq	8014e0 <isr_vectors-0x77feb20>
    14dc:	000000d6 	ldrdeq	r0, [r0], -r6
    14e0:	8317e905 	tsthi	r7, #81920	; 0x14000
    14e4:	24000000 	strcs	r0, [r0], #-0
    14e8:	00020e0a 	andeq	r0, r2, sl, lsl #28
    14ec:	17ea0500 	strbne	r0, [sl, r0, lsl #10]!
    14f0:	0000008f 	andeq	r0, r0, pc, lsl #1
    14f4:	03920a28 	orrseq	r0, r2, #40, 20	; 0x28000
    14f8:	eb050000 	bl	141500 <isr_vectors-0x7ebeb00>
    14fc:	00008f17 	andeq	r8, r0, r7, lsl pc
    1500:	580a2c00 	stmdapl	sl, {sl, fp, sp}
    1504:	05000009 	streq	r0, [r0, #-9]
    1508:	008f17ec 	addeq	r1, pc, ip, ror #15
    150c:	0a300000 	beq	c01514 <isr_vectors-0x73feaec>
    1510:	000000ec 	andeq	r0, r0, ip, ror #1
    1514:	8317ed05 	tsthi	r7, #320	; 0x140
    1518:	34000000 	strcc	r0, [r0], #-0
    151c:	0002d40a 	andeq	sp, r2, sl, lsl #8
    1520:	17ee0500 	strbne	r0, [lr, r0, lsl #10]!
    1524:	0000008f 	andeq	r0, r0, pc, lsl #1
    1528:	02de0a38 	sbcseq	r0, lr, #56, 20	; 0x38000
    152c:	ef050000 	svc	0x00050000
    1530:	00008f17 	andeq	r8, r0, r7, lsl pc
    1534:	cb0a3c00 	blgt	29053c <isr_vectors-0x7d6fac4>
    1538:	05000002 	streq	r0, [r0, #-2]
    153c:	008f17f0 	strdeq	r1, [pc], r0
    1540:	0a400000 	beq	1001548 <isr_vectors-0x6ffeab8>
    1544:	00000102 	andeq	r0, r0, r2, lsl #2
    1548:	8317f105 	tsthi	r7, #1073741825	; 0x40000001	; <UNPREDICTABLE>
    154c:	44000000 	strmi	r0, [r0], #-0
    1550:	000bf20a 	andeq	pc, fp, sl, lsl #4
    1554:	17f20500 	ldrbne	r0, [r2, r0, lsl #10]!
    1558:	0000008f 	andeq	r0, r0, pc, lsl #1
    155c:	0a810a48 	beq	fe043e84 <_endOfBss+0xde043e4c>
    1560:	f3050000 	vhadd.u8	d0, d5, d0
    1564:	00008f17 	andeq	r8, r0, r7, lsl pc
    1568:	610a4c00 	tstvs	sl, r0, lsl #24
    156c:	05000009 	streq	r0, [r0, #-9]
    1570:	008f17f4 	strdeq	r1, [pc], r4
    1574:	0a500000 	beq	140157c <isr_vectors-0x6bfea84>
    1578:	00000118 	andeq	r0, r0, r8, lsl r1
    157c:	8317f505 	tsthi	r7, #20971520	; 0x1400000	; <UNPREDICTABLE>
    1580:	54000000 	strpl	r0, [r0], #-0
    1584:	0007770a 	andeq	r7, r7, sl, lsl #14
    1588:	17f60500 	ldrbne	r0, [r6, r0, lsl #10]!
    158c:	0000008f 	andeq	r0, r0, pc, lsl #1
    1590:	07800a58 			; <UNDEFINED> instruction: 0x07800a58
    1594:	f7050000 			; <UNDEFINED> instruction: 0xf7050000
    1598:	00008f17 	andeq	r8, r0, r7, lsl pc
    159c:	f40a5c00 			; <UNDEFINED> instruction: 0xf40a5c00
    15a0:	0500000a 	streq	r0, [r0, #-10]
    15a4:	008f17f8 	strdeq	r1, [pc], r8
    15a8:	0a600000 	beq	18015b0 <isr_vectors-0x67fea50>
    15ac:	00000932 	andeq	r0, r0, r2, lsr r9
    15b0:	8317f905 	tsthi	r7, #81920	; 0x14000	; <UNPREDICTABLE>
    15b4:	64000000 	strvs	r0, [r0], #-0
    15b8:	000a660a 	andeq	r6, sl, sl, lsl #12
    15bc:	17fa0500 	ldrbne	r0, [sl, r0, lsl #10]!
    15c0:	0000008f 	andeq	r0, r0, pc, lsl #1
    15c4:	03a60a68 			; <UNDEFINED> instruction: 0x03a60a68
    15c8:	fb050000 	blx	1415d2 <isr_vectors-0x7ebea2e>
    15cc:	00008f17 	andeq	r8, r0, r7, lsl pc
    15d0:	880a6c00 	stmdahi	sl, {sl, fp, sp, lr}
    15d4:	05000005 	streq	r0, [r0, #-5]
    15d8:	008f17fc 	strdeq	r1, [pc], ip
    15dc:	0a700000 	beq	1c015e4 <isr_vectors-0x63fea1c>
    15e0:	00000138 	andeq	r0, r0, r8, lsr r1
    15e4:	8317fd05 	tsthi	r7, #320	; 0x140	; <UNPREDICTABLE>
    15e8:	74000000 	strvc	r0, [r0], #-0
    15ec:	000be70a 	andeq	lr, fp, sl, lsl #14
    15f0:	17fe0500 	ldrbne	r0, [lr, r0, lsl #10]!
    15f4:	0000008f 	andeq	r0, r0, pc, lsl #1
    15f8:	0c8a0a78 	vstmiaeq	sl, {s0-s119}
    15fc:	ff050000 			; <UNDEFINED> instruction: 0xff050000
    1600:	00008f17 	andeq	r8, r0, r7, lsl pc
    1604:	2e0b7c00 	cdpcs	12, 0, cr7, cr11, cr0, {0}
    1608:	05000001 	streq	r0, [r0, #-1]
    160c:	8f170100 	svchi	0x00170100
    1610:	80000000 	andhi	r0, r0, r0
    1614:	00014e0b 	andeq	r4, r1, fp, lsl #28
    1618:	01010500 	tsteq	r1, r0, lsl #10
    161c:	00008317 	andeq	r8, r0, r7, lsl r3
    1620:	1b0b8400 	blne	2e2628 <isr_vectors-0x7d1d9d8>
    1624:	0500000c 	streq	r0, [r0, #-12]
    1628:	8f170102 	svchi	0x00170102
    162c:	88000000 	stmdahi	r0, {}	; <UNPREDICTABLE>
    1630:	00044c0b 	andeq	r4, r4, fp, lsl #24
    1634:	01030500 	tsteq	r3, r0, lsl #10
    1638:	00008317 	andeq	r8, r0, r7, lsl r3
    163c:	3c0b8c00 	stccc	12, cr8, [fp], {-0}
    1640:	0500000b 	streq	r0, [r0, #-11]
    1644:	8f170104 	svchi	0x00170104
    1648:	90000000 	andls	r0, r0, r0
    164c:	5253430c 	subspl	r4, r3, #12, 6	; 0x30000000
    1650:	01050500 	tsteq	r5, r0, lsl #10
    1654:	00008f17 	andeq	r8, r0, r7, lsl pc
    1658:	2c0b9400 	cfstrscs	mvf9, [fp], {-0}
    165c:	05000009 	streq	r0, [r0, #-9]
    1660:	8f170106 	svchi	0x00170106
    1664:	98000000 	stmdals	r0, {}	; <UNPREDICTABLE>
    1668:	0001b30b 	andeq	fp, r1, fp, lsl #6
    166c:	01070500 	tsteq	r7, r0, lsl #10
    1670:	00008f17 	andeq	r8, r0, r7, lsl pc
    1674:	0d009c00 	stceq	12, cr9, [r0, #-0]
    1678:	000008f3 	strdeq	r0, [r0], -r3
    167c:	03010805 	movweq	r0, #6149	; 0x1805
    1680:	0000046f 	andeq	r0, r0, pc, ror #8
    1684:	4343520e 	movtmi	r5, #12814	; 0x320e
    1688:	01500500 	cmpeq	r0, r0, lsl #10
    168c:	0006a218 	andeq	sl, r6, r8, lsl r2
    1690:	88040f00 	stmdahi	r4, {r8, r9, sl, fp}
    1694:	10000006 	andne	r0, r0, r6
    1698:	00001085 	andeq	r1, r0, r5, lsl #1
    169c:	14064f01 	strne	r4, [r6], #-3841	; 0xfffff0ff
    16a0:	2c080007 	stccs	0, cr0, [r8], {7}
    16a4:	01000000 	mrseq	r0, (UNDEF: 0)
    16a8:	0006dd9c 	muleq	r6, ip, sp
    16ac:	0df01100 	ldfeqe	f1, [r0]
    16b0:	4f010000 	svcmi	0x00010000
    16b4:	00046329 	andeq	r6, r4, r9, lsr #6
    16b8:	77910200 	ldrvc	r0, [r1, r0, lsl #4]
    16bc:	000cf311 	andeq	pc, ip, r1, lsl r3	; <UNPREDICTABLE>
    16c0:	344f0100 	strbcc	r0, [pc], #-256	; 16c8 <isr_vectors-0x7ffe938>
    16c4:	00000025 	andeq	r0, r0, r5, lsr #32
    16c8:	00709102 	rsbseq	r9, r0, r2, lsl #2
    16cc:	00104910 	andseq	r4, r0, r0, lsl r9
    16d0:	064a0100 	strbeq	r0, [sl], -r0, lsl #2
    16d4:	080006ec 	stmdaeq	r0, {r2, r3, r5, r6, r7, r9, sl}
    16d8:	00000028 	andeq	r0, r0, r8, lsr #32
    16dc:	07039c01 	streq	r9, [r3, -r1, lsl #24]
    16e0:	f3110000 	vhadd.u16	d0, d1, d0
    16e4:	0100000c 	tsteq	r0, ip
    16e8:	0025254a 	eoreq	r2, r5, sl, asr #10
    16ec:	91020000 	mrsls	r0, (UNDEF: 2)
    16f0:	19100074 	ldmdbne	r0, {r2, r4, r5, r6}
    16f4:	01000010 	tsteq	r0, r0, lsl r0
    16f8:	06c40645 	strbeq	r0, [r4], r5, asr #12
    16fc:	00280800 	eoreq	r0, r8, r0, lsl #16
    1700:	9c010000 	stcls	0, cr0, [r1], {-0}
    1704:	00000729 	andeq	r0, r0, r9, lsr #14
    1708:	000fde11 	andeq	sp, pc, r1, lsl lr	; <UNPREDICTABLE>
    170c:	23450100 	movtcs	r0, #20736	; 0x5100
    1710:	00000424 	andeq	r0, r0, r4, lsr #8
    1714:	00779102 	rsbseq	r9, r7, r2, lsl #2
    1718:	00101110 	andseq	r1, r0, r0, lsl r1
    171c:	06400100 	strbeq	r0, [r0], -r0, lsl #2
    1720:	0800069c 	stmdaeq	r0, {r2, r3, r4, r7, r9, sl}
    1724:	00000028 	andeq	r0, r0, r8, lsr #32
    1728:	074f9c01 	strbeq	r9, [pc, -r1, lsl #24]
    172c:	de110000 	cdple	0, 1, cr0, cr1, cr0, {0}
    1730:	0100000f 	tsteq	r0, pc
    1734:	03f12640 	mvnseq	r2, #64, 12	; 0x4000000
    1738:	91020000 	mrsls	r0, (UNDEF: 2)
    173c:	80100077 	andshi	r0, r0, r7, ror r0
    1740:	0100000f 	tsteq	r0, pc
    1744:	0674063b 			; <UNDEFINED> instruction: 0x0674063b
    1748:	00280800 	eoreq	r0, r8, r0, lsl #16
    174c:	9c010000 	stcls	0, cr0, [r1], {-0}
    1750:	00000775 	andeq	r0, r0, r5, ror r7
    1754:	000fde11 	andeq	sp, pc, r1, lsl lr	; <UNPREDICTABLE>
    1758:	233b0100 	teqcs	fp, #0, 2
    175c:	000001fc 	strdeq	r0, [r0], -ip
    1760:	00779102 	rsbseq	r9, r7, r2, lsl #2
    1764:	00109510 	andseq	r9, r0, r0, lsl r5
    1768:	06360100 	ldrteq	r0, [r6], -r0, lsl #2
    176c:	0800064c 	stmdaeq	r0, {r2, r3, r6, r9, sl}
    1770:	00000028 	andeq	r0, r0, r8, lsr #32
    1774:	079b9c01 	ldreq	r9, [fp, r1, lsl #24]
    1778:	79110000 	ldmdbvc	r1, {}	; <UNPREDICTABLE>
    177c:	0100000f 	tsteq	r0, pc
    1780:	01b12036 			; <UNDEFINED> instruction: 0x01b12036
    1784:	91020000 	mrsls	r0, (UNDEF: 2)
    1788:	54100077 	ldrpl	r0, [r0], #-119	; 0xffffff89
    178c:	0100000f 	tsteq	r0, pc
    1790:	06240631 			; <UNDEFINED> instruction: 0x06240631
    1794:	00280800 	eoreq	r0, r8, r0, lsl #16
    1798:	9c010000 	stcls	0, cr0, [r1], {-0}
    179c:	000007c1 	andeq	r0, r0, r1, asr #15
    17a0:	000cf311 	andeq	pc, ip, r1, lsl r3	; <UNPREDICTABLE>
    17a4:	1b310100 	blne	c41bac <isr_vectors-0x73be454>
    17a8:	00000025 	andeq	r0, r0, r5, lsr #32
    17ac:	00749102 	rsbseq	r9, r4, r2, lsl #2
    17b0:	00102110 	andseq	r2, r0, r0, lsl r1
    17b4:	062c0100 	strteq	r0, [ip], -r0, lsl #2
    17b8:	080005fc 	stmdaeq	r0, {r2, r3, r4, r5, r6, r7, r8, sl}
    17bc:	00000028 	andeq	r0, r0, r8, lsr #32
    17c0:	07e79c01 	strbeq	r9, [r7, r1, lsl #24]!
    17c4:	63110000 	tstvs	r1, #0
    17c8:	01000010 	tsteq	r0, r0, lsl r0
    17cc:	017e2e2c 	cmneq	lr, ip, lsr #28
    17d0:	91020000 	mrsls	r0, (UNDEF: 2)
    17d4:	88100077 	ldmdahi	r0, {r0, r1, r2, r4, r5, r6}
    17d8:	0100000f 	tsteq	r0, pc
    17dc:	05d40627 	ldrbeq	r0, [r4, #1575]	; 0x627
    17e0:	00280800 	eoreq	r0, r8, r0, lsl #16
    17e4:	9c010000 	stcls	0, cr0, [r1], {-0}
    17e8:	0000080d 	andeq	r0, r0, sp, lsl #16
    17ec:	00106311 	andseq	r6, r0, r1, lsl r3
    17f0:	2e270100 	sufcss	f0, f7, f0
    17f4:	00000145 	andeq	r0, r0, r5, asr #2
    17f8:	00779102 	rsbseq	r9, r7, r2, lsl #2
    17fc:	000fce10 	andeq	ip, pc, r0, lsl lr	; <UNPREDICTABLE>
    1800:	06220100 	strteq	r0, [r2], -r0, lsl #2
    1804:	080005ac 	stmdaeq	r0, {r2, r3, r5, r7, r8, sl}
    1808:	00000028 	andeq	r0, r0, r8, lsr #32
    180c:	08339c01 	ldmdaeq	r3!, {r0, sl, fp, ip, pc}
    1810:	63110000 	tstvs	r1, #0
    1814:	01000010 	tsteq	r0, r0, lsl r0
    1818:	010c2d22 	tsteq	ip, r2, lsr #26
    181c:	91020000 	mrsls	r0, (UNDEF: 2)
    1820:	c4100077 	ldrgt	r0, [r0], #-119	; 0xffffff89
    1824:	0100000f 	tsteq	r0, pc
    1828:	0574061c 	ldrbeq	r0, [r4, #-1564]!	; 0xfffff9e4
    182c:	00380800 	eorseq	r0, r8, r0, lsl #16
    1830:	9c010000 	stcls	0, cr0, [r1], {-0}
    1834:	00000859 	andeq	r0, r0, r9, asr r8
    1838:	000cf311 	andeq	pc, ip, r1, lsl r3	; <UNPREDICTABLE>
    183c:	151c0100 	ldrne	r0, [ip, #-256]	; 0xffffff00
    1840:	00000025 	andeq	r0, r0, r5, lsr #32
    1844:	00749102 	rsbseq	r9, r4, r2, lsl #2
    1848:	000fb010 	andeq	fp, pc, r0, lsl r0	; <UNPREDICTABLE>
    184c:	06160100 	ldreq	r0, [r6], -r0, lsl #2
    1850:	0800053c 	stmdaeq	r0, {r2, r3, r4, r5, r8, sl}
    1854:	00000038 	andeq	r0, r0, r8, lsr r0
    1858:	087f9c01 	ldmdaeq	pc!, {r0, sl, fp, ip, pc}^	; <UNPREDICTABLE>
    185c:	f3110000 	vhadd.u16	d0, d1, d0
    1860:	0100000c 	tsteq	r0, ip
    1864:	00251516 	eoreq	r1, r5, r6, lsl r5
    1868:	91020000 	mrsls	r0, (UNDEF: 2)
    186c:	ba100074 	blt	401a44 <isr_vectors-0x7bfe5bc>
    1870:	0100000f 	tsteq	r0, pc
    1874:	05040610 	streq	r0, [r4, #-1552]	; 0xfffff9f0
    1878:	00380800 	eorseq	r0, r8, r0, lsl #16
    187c:	9c010000 	stcls	0, cr0, [r1], {-0}
    1880:	000008a5 	andeq	r0, r0, r5, lsr #17
    1884:	000cf311 	andeq	pc, ip, r1, lsl r3	; <UNPREDICTABLE>
    1888:	15100100 	ldrne	r0, [r0, #-256]	; 0xffffff00
    188c:	00000025 	andeq	r0, r0, r5, lsr #32
    1890:	00749102 	rsbseq	r9, r4, r2, lsl #2
    1894:	000fe410 	andeq	lr, pc, r0, lsl r4	; <UNPREDICTABLE>
    1898:	060a0100 	streq	r0, [sl], -r0, lsl #2
    189c:	080004cc 	stmdaeq	r0, {r2, r3, r6, r7, sl}
    18a0:	00000038 	andeq	r0, r0, r8, lsr r0
    18a4:	08cb9c01 	stmiaeq	fp, {r0, sl, fp, ip, pc}^
    18a8:	f3110000 	vhadd.u16	d0, d1, d0
    18ac:	0100000c 	tsteq	r0, ip
    18b0:	0025150a 	eoreq	r1, r5, sl, lsl #10
    18b4:	91020000 	mrsls	r0, (UNDEF: 2)
    18b8:	64120074 	ldrvs	r0, [r2], #-116	; 0xffffff8c
    18bc:	0100000f 	tsteq	r0, pc
    18c0:	04900604 	ldreq	r0, [r0], #1540	; 0x604
    18c4:	003c0800 	eorseq	r0, ip, r0, lsl #16
    18c8:	9c010000 	stcls	0, cr0, [r1], {-0}
    18cc:	000f7911 	andeq	r7, pc, r1, lsl r9	; <UNPREDICTABLE>
    18d0:	31040100 	mrscc	r0, (UNDEF: 20)
    18d4:	000000bb 	strheq	r0, [r0], -fp
    18d8:	00779102 	rsbseq	r9, r7, r2, lsl #2
    18dc:	00010400 	andeq	r0, r1, r0, lsl #8
    18e0:	6c000400 	cfstrsvs	mvf0, [r0], {-0}
    18e4:	04000005 	streq	r0, [r0], #-5
    18e8:	00031101 	andeq	r1, r3, r1, lsl #2
    18ec:	11260c00 			; <UNDEFINED> instruction: 0x11260c00
    18f0:	09000000 	stmdbeq	r0, {}	; <UNPREDICTABLE>
    18f4:	07400000 	strbeq	r0, [r0, -r0]
    18f8:	00600800 	rsbeq	r0, r0, r0, lsl #16
    18fc:	07dc0000 	ldrbeq	r0, [ip, r0]
    1900:	01020000 	mrseq	r0, (UNDEF: 2)
    1904:	0008c706 	andeq	ip, r8, r6, lsl #14
    1908:	08010200 	stmdaeq	r1, {r9}
    190c:	000008c5 	andeq	r0, r0, r5, asr #17
    1910:	22050202 	andcs	r0, r5, #536870912	; 0x20000000
    1914:	02000009 	andeq	r0, r0, #9
    1918:	05510702 	ldrbeq	r0, [r1, #-1794]	; 0xfffff8fe
    191c:	04020000 	streq	r0, [r2], #-0
    1920:	0001f405 	andeq	pc, r1, r5, lsl #8
    1924:	039b0300 	orrseq	r0, fp, #0, 6
    1928:	4f020000 	svcmi	0x00020000
    192c:	00005419 	andeq	r5, r0, r9, lsl r4
    1930:	07040200 	streq	r0, [r4, -r0, lsl #4]
    1934:	000001a1 	andeq	r0, r0, r1, lsr #3
    1938:	ef050802 	svc	0x00050802
    193c:	02000001 	andeq	r0, r0, #1
    1940:	019c0708 	orrseq	r0, ip, r8, lsl #14
    1944:	04040000 	streq	r0, [r4], #-0
    1948:	746e6905 	strbtvc	r6, [lr], #-2309	; 0xfffff6fb
    194c:	07040200 	streq	r0, [r4, -r0, lsl #4]
    1950:	000001a6 	andeq	r0, r0, r6, lsr #3
    1954:	00039d03 	andeq	r9, r3, r3, lsl #26
    1958:	14300300 	ldrtne	r0, [r0], #-768	; 0xfffffd00
    195c:	00000048 	andeq	r0, r0, r8, asr #32
    1960:	00007705 	andeq	r7, r0, r5, lsl #14
    1964:	110d0600 	tstne	sp, r0, lsl #12
    1968:	03010000 	movweq	r0, #4096	; 0x1000
    196c:	00074006 	andeq	r4, r7, r6
    1970:	00006008 	andeq	r6, r0, r8
    1974:	019c0100 	orrseq	r0, ip, r0, lsl #2
    1978:	07000001 	streq	r0, [r0, -r1]
    197c:	000010f0 	strdeq	r1, [r0], -r0
    1980:	012c0301 			; <UNDEFINED> instruction: 0x012c0301
    1984:	02000001 	andeq	r0, r0, #1
    1988:	de076c91 	mcrle	12, 0, r6, cr7, cr1, {4}
    198c:	0100000f 	tsteq	r0, pc
    1990:	00774303 	rsbseq	r4, r7, r3, lsl #6
    1994:	91020000 	mrsls	r0, (UNDEF: 2)
    1998:	10fd0768 	rscsne	r0, sp, r8, ror #14
    199c:	03010000 	movweq	r0, #4096	; 0x1000
    19a0:	00007753 	andeq	r7, r0, r3, asr r7
    19a4:	64910200 	ldrvs	r0, [r1], #512	; 0x200
    19a8:	00111f07 	andseq	r1, r1, r7, lsl #30
    19ac:	62030100 	andvs	r0, r3, #0, 2
    19b0:	00000077 	andeq	r0, r0, r7, ror r0
    19b4:	08609102 	stmdaeq	r0!, {r1, r8, ip, pc}^
    19b8:	00001102 	andeq	r1, r0, r2, lsl #2
    19bc:	770e0501 	strvc	r0, [lr, -r1, lsl #10]
    19c0:	02000000 	andeq	r0, r0, #0
    19c4:	52097491 	andpl	r7, r9, #-1862270976	; 0x91000000
    19c8:	1e080007 	cdpne	0, 0, cr0, cr8, cr7, {0}
    19cc:	0a000000 	beq	19d4 <isr_vectors-0x7ffe62c>
    19d0:	06010069 	streq	r0, [r1], -r9, rrx
    19d4:	0000690d 	andeq	r6, r0, sp, lsl #18
    19d8:	70910200 	addsvc	r0, r1, r0, lsl #4
    19dc:	040b0000 	streq	r0, [fp], #-0
    19e0:	00000083 	andeq	r0, r0, r3, lsl #1
    19e4:	00070500 	andeq	r0, r7, r0, lsl #10
    19e8:	0d000400 	cfstrseq	mvf0, [r0, #-0]
    19ec:	04000006 	streq	r0, [r0], #-6
    19f0:	00031101 	andeq	r1, r3, r1, lsl #2
    19f4:	11350c00 	teqne	r5, r0, lsl #24
    19f8:	09000000 	stmdbeq	r0, {}	; <UNPREDICTABLE>
    19fc:	092f0000 	stmdbeq	pc!, {}	; <UNPREDICTABLE>
    1a00:	01020000 	mrseq	r0, (UNDEF: 2)
    1a04:	0008c706 	andeq	ip, r8, r6, lsl #14
    1a08:	08010200 	stmdaeq	r1, {r9}
    1a0c:	000008c5 	andeq	r0, r0, r5, asr #17
    1a10:	22050202 	andcs	r0, r5, #536870912	; 0x20000000
    1a14:	02000009 	andeq	r0, r0, #9
    1a18:	05510702 	ldrbeq	r0, [r1, #-1794]	; 0xfffff8fe
    1a1c:	04020000 	streq	r0, [r2], #-0
    1a20:	0001f405 	andeq	pc, r1, r5, lsl #8
    1a24:	039b0300 	orrseq	r0, fp, #0, 6
    1a28:	4f010000 	svcmi	0x00010000
    1a2c:	00004c19 	andeq	r4, r0, r9, lsl ip
    1a30:	07040200 	streq	r0, [r4, -r0, lsl #4]
    1a34:	000001a1 	andeq	r0, r0, r1, lsr #3
    1a38:	ef050802 	svc	0x00050802
    1a3c:	02000001 	andeq	r0, r0, #1
    1a40:	019c0708 	orrseq	r0, ip, r8, lsl #14
    1a44:	04040000 	streq	r0, [r4], #-0
    1a48:	746e6905 	strbtvc	r6, [lr], #-2309	; 0xfffff6fb
    1a4c:	07040200 	streq	r0, [r4, -r0, lsl #4]
    1a50:	000001a6 	andeq	r0, r0, r6, lsr #3
    1a54:	00039d03 	andeq	r9, r3, r3, lsl #26
    1a58:	14300200 	ldrtne	r0, [r0], #-512	; 0xfffffe00
    1a5c:	00000040 	andeq	r0, r0, r0, asr #32
    1a60:	00006f05 	andeq	r6, r0, r5, lsl #30
    1a64:	03a00600 	moveq	r0, #0, 12
    1a68:	029909de 	addseq	r0, r9, #3637248	; 0x378000
    1a6c:	43070000 	movwmi	r0, #28672	; 0x7000
    1a70:	e0030052 	and	r0, r3, r2, asr r0
    1a74:	00007b17 	andeq	r7, r0, r7, lsl fp
    1a78:	e1080000 	mrs	r0, (UNDEF: 8)
    1a7c:	0300000b 	movweq	r0, #11
    1a80:	007b17e1 	rsbseq	r1, fp, r1, ror #15
    1a84:	08040000 	stmdaeq	r4, {}	; <UNPREDICTABLE>
    1a88:	00000b37 	andeq	r0, r0, r7, lsr fp
    1a8c:	7b17e203 	blvc	5fa2a0 <isr_vectors-0x7a05d60>
    1a90:	08000000 	stmdaeq	r0, {}	; <UNPREDICTABLE>
    1a94:	00074908 	andeq	r4, r7, r8, lsl #18
    1a98:	17e30300 	strbne	r0, [r3, r0, lsl #6]!
    1a9c:	0000007b 	andeq	r0, r0, fp, ror r0
    1aa0:	0b30080c 	bleq	c03ad8 <isr_vectors-0x73fc528>
    1aa4:	e4030000 	str	r0, [r3], #-0
    1aa8:	00007b17 	andeq	r7, r0, r7, lsl fp
    1aac:	c0081000 	andgt	r1, r8, r0
    1ab0:	03000000 	movweq	r0, #0
    1ab4:	006f17e5 	rsbeq	r1, pc, r5, ror #15
    1ab8:	08140000 	ldmdaeq	r4, {}	; <UNPREDICTABLE>
    1abc:	000001ea 	andeq	r0, r0, sl, ror #3
    1ac0:	7b17e603 	blvc	5fb2d4 <isr_vectors-0x7a04d2c>
    1ac4:	18000000 	stmdane	r0, {}	; <UNPREDICTABLE>
    1ac8:	00038d08 	andeq	r8, r3, r8, lsl #26
    1acc:	17e70300 	strbne	r0, [r7, r0, lsl #6]!
    1ad0:	0000007b 	andeq	r0, r0, fp, ror r0
    1ad4:	0afc081c 	beq	fff03b4c <_endOfBss+0xdff03b14>
    1ad8:	e8030000 	stmda	r3, {}	; <UNPREDICTABLE>
    1adc:	00007b17 	andeq	r7, r0, r7, lsl fp
    1ae0:	d6082000 	strle	r2, [r8], -r0
    1ae4:	03000000 	movweq	r0, #0
    1ae8:	006f17e9 	rsbeq	r1, pc, r9, ror #15
    1aec:	08240000 	stmdaeq	r4!, {}	; <UNPREDICTABLE>
    1af0:	0000020e 	andeq	r0, r0, lr, lsl #4
    1af4:	7b17ea03 	blvc	5fc308 <isr_vectors-0x7a03cf8>
    1af8:	28000000 	stmdacs	r0, {}	; <UNPREDICTABLE>
    1afc:	00039208 	andeq	r9, r3, r8, lsl #4
    1b00:	17eb0300 	strbne	r0, [fp, r0, lsl #6]!
    1b04:	0000007b 	andeq	r0, r0, fp, ror r0
    1b08:	0958082c 	ldmdbeq	r8, {r2, r3, r5, fp}^
    1b0c:	ec030000 	stc	0, cr0, [r3], {-0}
    1b10:	00007b17 	andeq	r7, r0, r7, lsl fp
    1b14:	ec083000 	stc	0, cr3, [r8], {-0}
    1b18:	03000000 	movweq	r0, #0
    1b1c:	006f17ed 	rsbeq	r1, pc, sp, ror #15
    1b20:	08340000 	ldmdaeq	r4!, {}	; <UNPREDICTABLE>
    1b24:	000002d4 	ldrdeq	r0, [r0], -r4
    1b28:	7b17ee03 	blvc	5fd33c <isr_vectors-0x7a02cc4>
    1b2c:	38000000 	stmdacc	r0, {}	; <UNPREDICTABLE>
    1b30:	0002de08 	andeq	sp, r2, r8, lsl #28
    1b34:	17ef0300 	strbne	r0, [pc, r0, lsl #6]!
    1b38:	0000007b 	andeq	r0, r0, fp, ror r0
    1b3c:	02cb083c 	sbceq	r0, fp, #60, 16	; 0x3c0000
    1b40:	f0030000 			; <UNDEFINED> instruction: 0xf0030000
    1b44:	00007b17 	andeq	r7, r0, r7, lsl fp
    1b48:	02084000 	andeq	r4, r8, #0
    1b4c:	03000001 	movweq	r0, #1
    1b50:	006f17f1 	strdeq	r1, [pc], #-113	; <UNPREDICTABLE>
    1b54:	08440000 	stmdaeq	r4, {}^	; <UNPREDICTABLE>
    1b58:	00000bf2 	strdeq	r0, [r0], -r2
    1b5c:	7b17f203 	blvc	5fe370 <isr_vectors-0x7a01c90>
    1b60:	48000000 	stmdami	r0, {}	; <UNPREDICTABLE>
    1b64:	000a8108 	andeq	r8, sl, r8, lsl #2
    1b68:	17f30300 	ldrbne	r0, [r3, r0, lsl #6]!
    1b6c:	0000007b 	andeq	r0, r0, fp, ror r0
    1b70:	0961084c 	stmdbeq	r1!, {r2, r3, r6, fp}^
    1b74:	f4030000 	vst4.8	{d0-d3}, [r3], r0
    1b78:	00007b17 	andeq	r7, r0, r7, lsl fp
    1b7c:	18085000 	stmdane	r8, {ip, lr}
    1b80:	03000001 	movweq	r0, #1
    1b84:	006f17f5 	strdeq	r1, [pc], #-117	; <UNPREDICTABLE>
    1b88:	08540000 	ldmdaeq	r4, {}^	; <UNPREDICTABLE>
    1b8c:	00000777 	andeq	r0, r0, r7, ror r7
    1b90:	7b17f603 	blvc	5ff3a4 <isr_vectors-0x7a00c5c>
    1b94:	58000000 	stmdapl	r0, {}	; <UNPREDICTABLE>
    1b98:	00078008 	andeq	r8, r7, r8
    1b9c:	17f70300 	ldrbne	r0, [r7, r0, lsl #6]!
    1ba0:	0000007b 	andeq	r0, r0, fp, ror r0
    1ba4:	0af4085c 	beq	ffd03d1c <_endOfBss+0xdfd03ce4>
    1ba8:	f8030000 			; <UNDEFINED> instruction: 0xf8030000
    1bac:	00007b17 	andeq	r7, r0, r7, lsl fp
    1bb0:	32086000 	andcc	r6, r8, #0
    1bb4:	03000009 	movweq	r0, #9
    1bb8:	006f17f9 	strdeq	r1, [pc], #-121	; <UNPREDICTABLE>
    1bbc:	08640000 	stmdaeq	r4!, {}^	; <UNPREDICTABLE>
    1bc0:	00000a66 	andeq	r0, r0, r6, ror #20
    1bc4:	7b17fa03 	blvc	6003d8 <isr_vectors-0x79ffc28>
    1bc8:	68000000 	stmdavs	r0, {}	; <UNPREDICTABLE>
    1bcc:	0003a608 	andeq	sl, r3, r8, lsl #12
    1bd0:	17fb0300 	ldrbne	r0, [fp, r0, lsl #6]!
    1bd4:	0000007b 	andeq	r0, r0, fp, ror r0
    1bd8:	0588086c 	streq	r0, [r8, #2156]	; 0x86c
    1bdc:	fc030000 	stc2	0, cr0, [r3], {-0}
    1be0:	00007b17 	andeq	r7, r0, r7, lsl fp
    1be4:	38087000 	stmdacc	r8, {ip, sp, lr}
    1be8:	03000001 	movweq	r0, #1
    1bec:	006f17fd 	strdeq	r1, [pc], #-125	; <UNPREDICTABLE>
    1bf0:	08740000 	ldmdaeq	r4!, {}^	; <UNPREDICTABLE>
    1bf4:	00000be7 	andeq	r0, r0, r7, ror #23
    1bf8:	7b17fe03 	blvc	60140c <isr_vectors-0x79febf4>
    1bfc:	78000000 	stmdavc	r0, {}	; <UNPREDICTABLE>
    1c00:	000c8a08 	andeq	r8, ip, r8, lsl #20
    1c04:	17ff0300 	ldrbne	r0, [pc, r0, lsl #6]!
    1c08:	0000007b 	andeq	r0, r0, fp, ror r0
    1c0c:	012e097c 			; <UNDEFINED> instruction: 0x012e097c
    1c10:	00030000 	andeq	r0, r3, r0
    1c14:	007b1701 	rsbseq	r1, fp, r1, lsl #14
    1c18:	09800000 	stmibeq	r0, {}	; <UNPREDICTABLE>
    1c1c:	0000014e 	andeq	r0, r0, lr, asr #2
    1c20:	17010103 	strne	r0, [r1, -r3, lsl #2]
    1c24:	0000006f 	andeq	r0, r0, pc, rrx
    1c28:	0c1b0984 			; <UNDEFINED> instruction: 0x0c1b0984
    1c2c:	02030000 	andeq	r0, r3, #0
    1c30:	007b1701 	rsbseq	r1, fp, r1, lsl #14
    1c34:	09880000 	stmibeq	r8, {}	; <UNPREDICTABLE>
    1c38:	0000044c 	andeq	r0, r0, ip, asr #8
    1c3c:	17010303 	strne	r0, [r1, -r3, lsl #6]
    1c40:	0000006f 	andeq	r0, r0, pc, rrx
    1c44:	0b3c098c 	bleq	f0427c <isr_vectors-0x70fbd84>
    1c48:	04030000 	streq	r0, [r3], #-0
    1c4c:	007b1701 	rsbseq	r1, fp, r1, lsl #14
    1c50:	0a900000 	beq	fe401c58 <_endOfBss+0xde401c20>
    1c54:	00525343 	subseq	r5, r2, r3, asr #6
    1c58:	17010503 	strne	r0, [r1, -r3, lsl #10]
    1c5c:	0000007b 	andeq	r0, r0, fp, ror r0
    1c60:	092c0994 	stmdbeq	ip!, {r2, r4, r7, r8, fp}
    1c64:	06030000 	streq	r0, [r3], -r0
    1c68:	007b1701 	rsbseq	r1, fp, r1, lsl #14
    1c6c:	09980000 	ldmibeq	r8, {}	; <UNPREDICTABLE>
    1c70:	000001b3 			; <UNDEFINED> instruction: 0x000001b3
    1c74:	17010703 	strne	r0, [r1, -r3, lsl #14]
    1c78:	0000007b 	andeq	r0, r0, fp, ror r0
    1c7c:	f30b009c 	vqadd.u8	d0, d27, d12
    1c80:	03000008 	movweq	r0, #8
    1c84:	80030108 	andhi	r0, r3, r8, lsl #2
    1c88:	0c000000 	stceq	0, cr0, [r0], {-0}
    1c8c:	010a032c 	tsteq	sl, ip, lsr #6
    1c90:	00034b09 	andeq	r4, r3, r9, lsl #22
    1c94:	01960900 	orrseq	r0, r6, r0, lsl #18
    1c98:	0c030000 	stceq	0, cr0, [r3], {-0}
    1c9c:	007b1701 	rsbseq	r1, fp, r1, lsl #14
    1ca0:	09000000 	stmdbeq	r0, {}	; <UNPREDICTABLE>
    1ca4:	000000b9 	strheq	r0, [r0], -r9
    1ca8:	17010d03 	strne	r0, [r1, -r3, lsl #26]
    1cac:	0000007b 	andeq	r0, r0, fp, ror r0
    1cb0:	07410904 	strbeq	r0, [r1, -r4, lsl #18]
    1cb4:	0e030000 	cdpeq	0, 0, cr0, cr3, cr0, {0}
    1cb8:	007b1701 	rsbseq	r1, fp, r1, lsl #14
    1cbc:	09080000 	stmdbeq	r8, {}	; <UNPREDICTABLE>
    1cc0:	00000010 	andeq	r0, r0, r0, lsl r0
    1cc4:	17010f03 	strne	r0, [r1, -r3, lsl #30]
    1cc8:	0000007b 	andeq	r0, r0, fp, ror r0
    1ccc:	44490a0c 	strbmi	r0, [r9], #-2572	; 0xfffff5f4
    1cd0:	10030052 	andne	r0, r3, r2, asr r0
    1cd4:	007b1701 	rsbseq	r1, fp, r1, lsl #14
    1cd8:	0a100000 	beq	401ce0 <isr_vectors-0x7bfe320>
    1cdc:	0052444f 	subseq	r4, r2, pc, asr #8
    1ce0:	17011103 	strne	r1, [r1, -r3, lsl #2]
    1ce4:	0000007b 	andeq	r0, r0, fp, ror r0
    1ce8:	02090914 	andeq	r0, r9, #20, 18	; 0x50000
    1cec:	12030000 	andne	r0, r3, #0
    1cf0:	007b1701 	rsbseq	r1, fp, r1, lsl #14
    1cf4:	09180000 	ldmdbeq	r8, {}	; <UNPREDICTABLE>
    1cf8:	00000016 	andeq	r0, r0, r6, lsl r0
    1cfc:	17011303 	strne	r1, [r1, -r3, lsl #6]
    1d00:	0000007b 	andeq	r0, r0, fp, ror r0
    1d04:	07bb091c 			; <UNDEFINED> instruction: 0x07bb091c
    1d08:	14030000 	strne	r0, [r3], #-0
    1d0c:	007b1701 	rsbseq	r1, fp, r1, lsl #14
    1d10:	09200000 	stmdbeq	r0!, {}	; <UNPREDICTABLE>
    1d14:	000007a2 	andeq	r0, r0, r2, lsr #15
    1d18:	17011503 	strne	r1, [r1, -r3, lsl #10]
    1d1c:	0000007b 	andeq	r0, r0, fp, ror r0
    1d20:	52420a24 	subpl	r0, r2, #36, 20	; 0x24000
    1d24:	16030052 			; <UNDEFINED> instruction: 0x16030052
    1d28:	007b1701 	rsbseq	r1, fp, r1, lsl #14
    1d2c:	00280000 	eoreq	r0, r8, r0
    1d30:	000a580b 	andeq	r5, sl, fp, lsl #16
    1d34:	01180300 	tsteq	r8, r0, lsl #6
    1d38:	0002a603 	andeq	sl, r2, r3, lsl #12
    1d3c:	03600c00 	cmneq	r0, #0, 24
    1d40:	b309011a 	movwlt	r0, #37146	; 0x911a
    1d44:	0a000004 	beq	1d5c <isr_vectors-0x7ffe2a4>
    1d48:	00315243 	eorseq	r5, r1, r3, asr #4
    1d4c:	17011c03 	strne	r1, [r1, -r3, lsl #24]
    1d50:	0000007b 	andeq	r0, r0, fp, ror r0
    1d54:	52430a00 	subpl	r0, r3, #0, 20
    1d58:	1d030032 	stcne	0, cr0, [r3, #-200]	; 0xffffff38
    1d5c:	007b1701 	rsbseq	r1, fp, r1, lsl #14
    1d60:	0a040000 	beq	101d68 <isr_vectors-0x7efe298>
    1d64:	00335243 	eorseq	r5, r3, r3, asr #4
    1d68:	17011e03 	strne	r1, [r1, -r3, lsl #28]
    1d6c:	0000007b 	andeq	r0, r0, fp, ror r0
    1d70:	52430a08 	subpl	r0, r3, #8, 20	; 0x8000
    1d74:	1f030034 	svcne	0x00030034
    1d78:	007b1701 	rsbseq	r1, fp, r1, lsl #14
    1d7c:	0a0c0000 	beq	301d84 <isr_vectors-0x7cfe27c>
    1d80:	00315253 	eorseq	r5, r1, r3, asr r2
    1d84:	17012003 	strne	r2, [r1, -r3]
    1d88:	0000007b 	andeq	r0, r0, fp, ror r0
    1d8c:	52530a10 	subspl	r0, r3, #16, 20	; 0x10000
    1d90:	21030032 	tstcs	r3, r2, lsr r0
    1d94:	007b1701 	rsbseq	r1, fp, r1, lsl #14
    1d98:	0a140000 	beq	501da0 <isr_vectors-0x7afe260>
    1d9c:	00524353 	subseq	r4, r2, r3, asr r3
    1da0:	17012203 	strne	r2, [r1, -r3, lsl #4]
    1da4:	0000007b 	andeq	r0, r0, fp, ror r0
    1da8:	0e790918 			; <UNDEFINED> instruction: 0x0e790918
    1dac:	23030000 	movwcs	r0, #12288	; 0x3000
    1db0:	006f1701 	rsbeq	r1, pc, r1, lsl #14
    1db4:	091c0000 	ldmdbeq	ip, {}	; <UNPREDICTABLE>
    1db8:	00000ebb 			; <UNDEFINED> instruction: 0x00000ebb
    1dbc:	17012403 	strne	r2, [r1, -r3, lsl #8]
    1dc0:	0000007b 	andeq	r0, r0, fp, ror r0
    1dc4:	0f1b0920 	svceq	0x001b0920
    1dc8:	25030000 	strcs	r0, [r3, #-0]
    1dcc:	007b1701 	rsbseq	r1, fp, r1, lsl #14
    1dd0:	09240000 	stmdbeq	r4!, {}	; <UNPREDICTABLE>
    1dd4:	00000ec1 	andeq	r0, r0, r1, asr #29
    1dd8:	17012603 	strne	r2, [r1, -r3, lsl #12]
    1ddc:	0000007b 	andeq	r0, r0, fp, ror r0
    1de0:	0f210928 	svceq	0x00210928
    1de4:	27030000 	strcs	r0, [r3, -r0]
    1de8:	007b1701 	rsbseq	r1, fp, r1, lsl #14
    1dec:	092c0000 	stmdbeq	ip!, {}	; <UNPREDICTABLE>
    1df0:	00000ec7 	andeq	r0, r0, r7, asr #29
    1df4:	17012803 	strne	r2, [r1, -r3, lsl #16]
    1df8:	0000007b 	andeq	r0, r0, fp, ror r0
    1dfc:	0f270930 	svceq	0x00270930
    1e00:	29030000 	stmdbcs	r3, {}	; <UNPREDICTABLE>
    1e04:	007b1701 	rsbseq	r1, fp, r1, lsl #14
    1e08:	09340000 	ldmdbeq	r4!, {}	; <UNPREDICTABLE>
    1e0c:	00000ecd 	andeq	r0, r0, sp, asr #29
    1e10:	17012a03 	strne	r2, [r1, -r3, lsl #20]
    1e14:	0000007b 	andeq	r0, r0, fp, ror r0
    1e18:	0f2d0938 	svceq	0x002d0938
    1e1c:	2b030000 	blcs	c1e24 <isr_vectors-0x7f3e1dc>
    1e20:	007b1701 	rsbseq	r1, fp, r1, lsl #14
    1e24:	093c0000 	ldmdbeq	ip!, {}	; <UNPREDICTABLE>
    1e28:	00000ed3 	ldrdeq	r0, [r0], -r3
    1e2c:	17012c03 	strne	r2, [r1, -r3, lsl #24]
    1e30:	0000007b 	andeq	r0, r0, fp, ror r0
    1e34:	0f330940 	svceq	0x00330940
    1e38:	2d030000 	stccs	0, cr0, [r3, #-0]
    1e3c:	007b1701 	rsbseq	r1, fp, r1, lsl #14
    1e40:	09440000 	stmdbeq	r4, {}^	; <UNPREDICTABLE>
    1e44:	00000e38 	andeq	r0, r0, r8, lsr lr
    1e48:	17012e03 	strne	r2, [r1, -r3, lsl #28]
    1e4c:	0000006f 	andeq	r0, r0, pc, rrx
    1e50:	0e8f0948 			; <UNDEFINED> instruction: 0x0e8f0948
    1e54:	2f030000 	svccs	0x00030000
    1e58:	006f1701 	rsbeq	r1, pc, r1, lsl #14
    1e5c:	094c0000 	stmdbeq	ip, {}^	; <UNPREDICTABLE>
    1e60:	00000f05 	andeq	r0, r0, r5, lsl #30
    1e64:	17013003 	strne	r3, [r1, -r3]
    1e68:	0000006f 	andeq	r0, r0, pc, rrx
    1e6c:	0ea50950 			; <UNDEFINED> instruction: 0x0ea50950
    1e70:	31030000 	mrscc	r0, (UNDEF: 3)
    1e74:	006f1701 	rsbeq	r1, pc, r1, lsl #14
    1e78:	09540000 	ldmdbeq	r4, {}^	; <UNPREDICTABLE>
    1e7c:	00000ed9 	ldrdeq	r0, [r0], -r9
    1e80:	17013203 	strne	r3, [r1, -r3, lsl #4]
    1e84:	0000007b 	andeq	r0, r0, fp, ror r0
    1e88:	0f390958 	svceq	0x00390958
    1e8c:	33030000 	movwcc	r0, #12288	; 0x3000
    1e90:	007b1701 	rsbseq	r1, fp, r1, lsl #14
    1e94:	005c0000 	subseq	r0, ip, r0
    1e98:	000ef80b 	andeq	pc, lr, fp, lsl #16
    1e9c:	01340300 	teqeq	r4, r0, lsl #6
    1ea0:	00035803 	andeq	r5, r3, r3, lsl #16
    1ea4:	03340c00 	teqeq	r4, #0, 24
    1ea8:	7f090136 	svcvc	0x00090136
    1eac:	0a000005 	beq	1ec8 <isr_vectors-0x7ffe138>
    1eb0:	00524341 	subseq	r4, r2, r1, asr #6
    1eb4:	17013803 	strne	r3, [r1, -r3, lsl #16]
    1eb8:	0000007b 	andeq	r0, r0, fp, ror r0
    1ebc:	0d300900 			; <UNDEFINED> instruction: 0x0d300900
    1ec0:	39030000 	stmdbcc	r3, {}	; <UNPREDICTABLE>
    1ec4:	007b1701 	rsbseq	r1, fp, r1, lsl #14
    1ec8:	09040000 	stmdbeq	r4, {}	; <UNPREDICTABLE>
    1ecc:	00000d32 	andeq	r0, r0, r2, lsr sp
    1ed0:	17013a03 	strne	r3, [r1, -r3, lsl #20]
    1ed4:	0000007b 	andeq	r0, r0, fp, ror r0
    1ed8:	0d100908 	vldreq.16	s0, [r0, #-16]	; <UNPREDICTABLE>
    1edc:	3b030000 	blcc	c1ee4 <isr_vectors-0x7f3e11c>
    1ee0:	007b1701 	rsbseq	r1, fp, r1, lsl #14
    1ee4:	0a0c0000 	beq	301eec <isr_vectors-0x7cfe114>
    1ee8:	03005253 	movweq	r5, #595	; 0x253
    1eec:	7b17013c 	blvc	5c23e4 <isr_vectors-0x7a3dc1c>
    1ef0:	10000000 	andne	r0, r0, r0
    1ef4:	0052430a 	subseq	r4, r2, sl, lsl #6
    1ef8:	17013d03 	strne	r3, [r1, -r3, lsl #26]
    1efc:	0000007b 	andeq	r0, r0, fp, ror r0
    1f00:	0cee0914 			; <UNDEFINED> instruction: 0x0cee0914
    1f04:	3e030000 	cdpcc	0, 0, cr0, cr3, cr0, {0}
    1f08:	007b1701 	rsbseq	r1, fp, r1, lsl #14
    1f0c:	09180000 	ldmdbeq	r8, {}	; <UNPREDICTABLE>
    1f10:	00000c95 	muleq	r0, r5, ip
    1f14:	17013f03 	strne	r3, [r1, -r3, lsl #30]
    1f18:	0000007b 	andeq	r0, r0, fp, ror r0
    1f1c:	0d6e091c 			; <UNDEFINED> instruction: 0x0d6e091c
    1f20:	40030000 	andmi	r0, r3, r0
    1f24:	007b1701 	rsbseq	r1, fp, r1, lsl #14
    1f28:	09200000 	stmdbeq	r0!, {}	; <UNPREDICTABLE>
    1f2c:	00000d73 	andeq	r0, r0, r3, ror sp
    1f30:	17014103 	strne	r4, [r1, -r3, lsl #2]
    1f34:	0000007b 	andeq	r0, r0, fp, ror r0
    1f38:	0d370924 			; <UNDEFINED> instruction: 0x0d370924
    1f3c:	42030000 	andmi	r0, r3, #0
    1f40:	007b1701 	rsbseq	r1, fp, r1, lsl #14
    1f44:	09280000 	stmdbeq	r8!, {}	; <UNPREDICTABLE>
    1f48:	00000d52 	andeq	r0, r0, r2, asr sp
    1f4c:	17014303 	strne	r4, [r1, -r3, lsl #6]
    1f50:	0000007b 	andeq	r0, r0, fp, ror r0
    1f54:	0cad092c 			; <UNDEFINED> instruction: 0x0cad092c
    1f58:	44030000 	strmi	r0, [r3], #-0
    1f5c:	007b1701 	rsbseq	r1, fp, r1, lsl #14
    1f60:	00300000 	eorseq	r0, r0, r0
    1f64:	000cb90b 	andeq	fp, ip, fp, lsl #18
    1f68:	01450300 	mrseq	r0, (UNDEF: 117)
    1f6c:	0004c003 	andeq	ip, r4, r3
    1f70:	03100c00 	tsteq	r0, #0, 24
    1f74:	cf090147 	svcgt	0x00090147
    1f78:	09000005 	stmdbeq	r0, {r0, r2}
    1f7c:	00000ae9 	andeq	r0, r0, r9, ror #21
    1f80:	17014903 	strne	r4, [r1, -r3, lsl #18]
    1f84:	0000007b 	andeq	r0, r0, fp, ror r0
    1f88:	030c0900 	movweq	r0, #51456	; 0xc900
    1f8c:	4a030000 	bmi	c1f94 <isr_vectors-0x7f3e06c>
    1f90:	007b1701 	rsbseq	r1, fp, r1, lsl #14
    1f94:	0a040000 	beq	101f9c <isr_vectors-0x7efe064>
    1f98:	004c4156 	subeq	r4, ip, r6, asr r1
    1f9c:	17014b03 	strne	r4, [r1, -r3, lsl #22]
    1fa0:	0000007b 	andeq	r0, r0, fp, ror r0
    1fa4:	0aee0908 	beq	ffb843cc <_endOfBss+0xdfb84394>
    1fa8:	4c030000 	stcmi	0, cr0, [r3], {-0}
    1fac:	007b1701 	rsbseq	r1, fp, r1, lsl #14
    1fb0:	000c0000 	andeq	r0, ip, r0
    1fb4:	0007510b 	andeq	r5, r7, fp, lsl #2
    1fb8:	014d0300 	mrseq	r0, (UNDEF: 125)
    1fbc:	00058c03 	andeq	r8, r5, r3, lsl #24
    1fc0:	43520d00 	cmpmi	r2, #0, 26
    1fc4:	50030043 	andpl	r0, r3, r3, asr #32
    1fc8:	05e91801 	strbeq	r1, [r9, #2049]!	; 0x801
    1fcc:	040e0000 	streq	r0, [lr], #-0
    1fd0:	00000299 	muleq	r0, r9, r2
    1fd4:	00079c0f 	andeq	r9, r7, pc, lsl #24
    1fd8:	01510300 	cmpeq	r1, r0, lsl #6
    1fdc:	0005fc18 	andeq	pc, r5, r8, lsl ip	; <UNPREDICTABLE>
    1fe0:	4b040e00 	blmi	1057e8 <isr_vectors-0x7efa818>
    1fe4:	0f000003 	svceq	0x00000003
    1fe8:	00001147 	andeq	r1, r0, r7, asr #2
    1fec:	18015203 	stmdane	r1, {r0, r1, r9, ip, lr}
    1ff0:	000005fc 	strdeq	r0, [r0], -ip
    1ff4:	00114d0f 	andseq	r4, r1, pc, lsl #26
    1ff8:	01530300 	cmpeq	r3, r0, lsl #6
    1ffc:	0005fc18 	andeq	pc, r5, r8, lsl ip	; <UNPREDICTABLE>
    2000:	11590f00 	cmpne	r9, r0, lsl #30
    2004:	54030000 	strpl	r0, [r3], #-0
    2008:	05fc1801 	ldrbeq	r1, [ip, #2049]!	; 0x801
    200c:	530f0000 	movwpl	r0, #61440	; 0xf000
    2010:	03000011 	movweq	r0, #17
    2014:	fc180155 	ldc2	1, cr0, [r8], {85}	; 0x55
    2018:	0f000005 	svceq	0x00000005
    201c:	0000115f 	andeq	r1, r0, pc, asr r1
    2020:	18015603 	stmdane	r1, {r0, r1, r9, sl, ip, lr}
    2024:	000005fc 	strdeq	r0, [r0], -ip
    2028:	5257500d 	subspl	r5, r7, #13
    202c:	01570300 	cmpeq	r7, r0, lsl #6
    2030:	00065018 	andeq	r5, r6, r8, lsl r0
    2034:	b3040e00 	movwlt	r0, #19968	; 0x4e00
    2038:	0f000004 	svceq	0x00000004
    203c:	00000d4c 	andeq	r0, r0, ip, asr #26
    2040:	18015803 	stmdane	r1, {r0, r1, fp, ip, lr}
    2044:	00000663 	andeq	r0, r0, r3, ror #12
    2048:	057f040e 	ldrbeq	r0, [pc, #-1038]!	; 1c42 <isr_vectors-0x7ffe3be>
    204c:	530d0000 	movwpl	r0, #53248	; 0xd000
    2050:	03004b54 	movweq	r4, #2900	; 0xb54
    2054:	761a0159 			; <UNDEFINED> instruction: 0x761a0159
    2058:	0e000006 	cdpeq	0, 0, cr0, cr0, cr6, {0}
    205c:	0005cf04 	andeq	ip, r5, r4, lsl #30
    2060:	05dc1000 	ldrbeq	r1, [ip]
    2064:	04040000 	streq	r0, [r4], #-0
    2068:	00030515 	andeq	r0, r3, r5, lsl r5
    206c:	10200000 	eorne	r0, r0, r0
    2070:	000005ef 	andeq	r0, r0, pc, ror #11
    2074:	05150504 	ldreq	r0, [r5, #-1284]	; 0xfffffafc
    2078:	00000403 	andeq	r0, r0, r3, lsl #8
    207c:	06021020 	streq	r1, [r2], -r0, lsr #32
    2080:	06040000 	streq	r0, [r4], -r0
    2084:	08030515 	stmdaeq	r3, {r0, r2, r4, r8, sl}
    2088:	10200000 	eorne	r0, r0, r0
    208c:	0000060f 	andeq	r0, r0, pc, lsl #12
    2090:	05150704 	ldreq	r0, [r5, #-1796]	; 0xfffff8fc
    2094:	00000c03 	andeq	r0, r0, r3, lsl #24
    2098:	061c1020 	ldreq	r1, [ip], -r0, lsr #32
    209c:	08040000 	stmdaeq	r4, {}	; <UNPREDICTABLE>
    20a0:	10030515 	andne	r0, r3, r5, lsl r5
    20a4:	10200000 	eorne	r0, r0, r0
    20a8:	00000629 	andeq	r0, r0, r9, lsr #12
    20ac:	05150904 	ldreq	r0, [r5, #-2308]	; 0xfffff6fc
    20b0:	00001403 	andeq	r1, r0, r3, lsl #8
    20b4:	06361020 	ldrteq	r1, [r6], -r0, lsr #32
    20b8:	0a040000 	beq	1020c0 <isr_vectors-0x7efdf40>
    20bc:	18030515 	stmdane	r3, {r0, r2, r4, r8, sl}
    20c0:	10200000 	eorne	r0, r0, r0
    20c4:	00000643 	andeq	r0, r0, r3, asr #12
    20c8:	05150b04 	ldreq	r0, [r5, #-2820]	; 0xfffff4fc
    20cc:	00001c03 	andeq	r1, r0, r3, lsl #24
    20d0:	06561020 	ldrbeq	r1, [r6], -r0, lsr #32
    20d4:	0c040000 	stceq	0, cr0, [r4], {-0}
    20d8:	20030515 	andcs	r0, r3, r5, lsl r5
    20dc:	10200000 	eorne	r0, r0, r0
    20e0:	00000669 	andeq	r0, r0, r9, ror #12
    20e4:	05150d04 	ldreq	r0, [r5, #-3332]	; 0xfffff2fc
    20e8:	00002403 	andeq	r2, r0, r3, lsl #8
    20ec:	021e0020 	andseq	r0, lr, #32
    20f0:	00040000 	andeq	r0, r4, r0
    20f4:	000006f8 	strdeq	r0, [r0], -r8
    20f8:	03110104 	tsteq	r1, #4, 2
    20fc:	650c0000 	strvs	r0, [ip, #-0]
    2100:	00000011 	andeq	r0, r0, r1, lsl r0
    2104:	a0000009 	andge	r0, r0, r9
    2108:	a4080007 	strge	r0, [r8], #-7
    210c:	4d000000 	stcmi	0, cr0, [r0, #-0]
    2110:	0200000a 	andeq	r0, r0, #10
    2114:	08c70601 	stmiaeq	r7, {r0, r9, sl}^
    2118:	01020000 	mrseq	r0, (UNDEF: 2)
    211c:	0008c508 	andeq	ip, r8, r8, lsl #10
    2120:	05020200 	streq	r0, [r2, #-512]	; 0xfffffe00
    2124:	00000922 	andeq	r0, r0, r2, lsr #18
    2128:	51070202 	tstpl	r7, r2, lsl #4
    212c:	02000005 	andeq	r0, r0, #5
    2130:	01f40504 	mvnseq	r0, r4, lsl #10
    2134:	9b030000 	blls	c213c <isr_vectors-0x7f3dec4>
    2138:	02000003 	andeq	r0, r0, #3
    213c:	0054194f 	subseq	r1, r4, pc, asr #18
    2140:	04020000 	streq	r0, [r2], #-0
    2144:	0001a107 	andeq	sl, r1, r7, lsl #2
    2148:	05080200 	streq	r0, [r8, #-512]	; 0xfffffe00
    214c:	000001ef 	andeq	r0, r0, pc, ror #3
    2150:	9c070802 	stcls	8, cr0, [r7], {2}
    2154:	04000001 	streq	r0, [r0], #-1
    2158:	6e690504 	cdpvs	5, 6, cr0, cr9, cr4, {0}
    215c:	04020074 	streq	r0, [r2], #-116	; 0xffffff8c
    2160:	0001a607 	andeq	sl, r1, r7, lsl #12
    2164:	039d0300 	orrseq	r0, sp, #0, 6
    2168:	30030000 	andcc	r0, r3, r0
    216c:	00004814 	andeq	r4, r0, r4, lsl r8
    2170:	00770500 	rsbseq	r0, r7, r0, lsl #10
    2174:	07060000 	streq	r0, [r6, -r0]
    2178:	00002c01 	andeq	r2, r0, r1, lsl #24
    217c:	01c70400 	biceq	r0, r7, r0, lsl #8
    2180:	000000af 	andeq	r0, r0, pc, lsr #1
    2184:	000c0607 	andeq	r0, ip, r7, lsl #12
    2188:	9c070000 	stcls	0, cr0, [r7], {-0}
    218c:	0100000a 	tsteq	r0, sl
    2190:	00053407 	andeq	r3, r5, r7, lsl #8
    2194:	70070200 	andvc	r0, r7, r0, lsl #4
    2198:	0300000a 	movweq	r0, #10
    219c:	01070600 	tsteq	r7, r0, lsl #12
    21a0:	0000002c 	andeq	r0, r0, ip, lsr #32
    21a4:	d601cf04 	strle	ip, [r1], -r4, lsl #30
    21a8:	07000000 	streq	r0, [r0, -r0]
    21ac:	0000070c 	andeq	r0, r0, ip, lsl #14
    21b0:	04820700 	streq	r0, [r2], #1792	; 0x700
    21b4:	07010000 	streq	r0, [r1, -r0]
    21b8:	00000832 	andeq	r0, r0, r2, lsr r8
    21bc:	07620702 	strbeq	r0, [r2, -r2, lsl #14]!
    21c0:	00030000 	andeq	r0, r3, r0
    21c4:	2c010706 	stccs	7, cr0, [r1], {6}
    21c8:	04000000 	streq	r0, [r0], #-0
    21cc:	00f701d7 	ldrsbteq	r0, [r7], #23
    21d0:	f5070000 			; <UNDEFINED> instruction: 0xf5070000
    21d4:	0000000d 	andeq	r0, r0, sp
    21d8:	000d8c07 	andeq	r8, sp, r7, lsl #24
    21dc:	02070100 	andeq	r0, r7, #0, 2
    21e0:	0200000e 	andeq	r0, r0, #14
    21e4:	042c0800 	strteq	r0, [ip], #-2048	; 0xfffff800
    21e8:	9c09010a 	stflss	f0, [r9], {10}
    21ec:	09000001 	stmdbeq	r0, {r0}
    21f0:	00000196 	muleq	r0, r6, r1
    21f4:	17010c04 	strne	r0, [r1, -r4, lsl #24]
    21f8:	00000083 	andeq	r0, r0, r3, lsl #1
    21fc:	00b90900 	adcseq	r0, r9, r0, lsl #18
    2200:	0d040000 	stceq	0, cr0, [r4, #-0]
    2204:	00831701 	addeq	r1, r3, r1, lsl #14
    2208:	09040000 	stmdbeq	r4, {}	; <UNPREDICTABLE>
    220c:	00000741 	andeq	r0, r0, r1, asr #14
    2210:	17010e04 	strne	r0, [r1, -r4, lsl #28]
    2214:	00000083 	andeq	r0, r0, r3, lsl #1
    2218:	00100908 	andseq	r0, r0, r8, lsl #18
    221c:	0f040000 	svceq	0x00040000
    2220:	00831701 	addeq	r1, r3, r1, lsl #14
    2224:	0a0c0000 	beq	30222c <isr_vectors-0x7cfddd4>
    2228:	00524449 	subseq	r4, r2, r9, asr #8
    222c:	17011004 	strne	r1, [r1, -r4]
    2230:	00000083 	andeq	r0, r0, r3, lsl #1
    2234:	444f0a10 	strbmi	r0, [pc], #-2576	; 223c <isr_vectors-0x7ffddc4>
    2238:	11040052 	qaddne	r0, r2, r4
    223c:	00831701 	addeq	r1, r3, r1, lsl #14
    2240:	09140000 	ldmdbeq	r4, {}	; <UNPREDICTABLE>
    2244:	00000209 	andeq	r0, r0, r9, lsl #4
    2248:	17011204 	strne	r1, [r1, -r4, lsl #4]
    224c:	00000083 	andeq	r0, r0, r3, lsl #1
    2250:	00160918 	andseq	r0, r6, r8, lsl r9
    2254:	13040000 	movwne	r0, #16384	; 0x4000
    2258:	00831701 	addeq	r1, r3, r1, lsl #14
    225c:	091c0000 	ldmdbeq	ip, {}	; <UNPREDICTABLE>
    2260:	000007bb 			; <UNDEFINED> instruction: 0x000007bb
    2264:	17011404 	strne	r1, [r1, -r4, lsl #8]
    2268:	00000083 	andeq	r0, r0, r3, lsl #1
    226c:	07a20920 	streq	r0, [r2, r0, lsr #18]!
    2270:	15040000 	strne	r0, [r4, #-0]
    2274:	00831701 	addeq	r1, r3, r1, lsl #14
    2278:	0a240000 	beq	902280 <isr_vectors-0x76fdd80>
    227c:	00525242 	subseq	r5, r2, r2, asr #4
    2280:	17011604 	strne	r1, [r1, -r4, lsl #12]
    2284:	00000083 	andeq	r0, r0, r3, lsl #1
    2288:	580b0028 	stmdapl	fp, {r3, r5}
    228c:	0400000a 	streq	r0, [r0], #-10
    2290:	f7030118 			; <UNDEFINED> instruction: 0xf7030118
    2294:	0c000000 	stceq	0, cr0, [r0], {-0}
    2298:	00019c04 	andeq	r9, r1, r4, lsl #24
    229c:	11470d00 	cmpne	r7, r0, lsl #26
    22a0:	52040000 	andpl	r0, r4, #0
    22a4:	01a91801 			; <UNDEFINED> instruction: 0x01a91801
    22a8:	b4030000 	strlt	r0, [r3], #-0
    22ac:	0500000c 	streq	r0, [r0, #-12]
    22b0:	00690d13 	rsbeq	r0, r9, r3, lsl sp
    22b4:	690e0000 	stmdbvs	lr, {}	; <UNPREDICTABLE>
    22b8:	06000009 	streq	r0, [r0], -r9
    22bc:	00831a15 	addeq	r1, r3, r5, lsl sl
    22c0:	7f0f0000 	svcvc	0x000f0000
    22c4:	01000011 	tsteq	r0, r1, lsl r0
    22c8:	01bc0603 			; <UNDEFINED> instruction: 0x01bc0603
    22cc:	03050000 	movweq	r0, #20480	; 0x5000
    22d0:	20000030 	andcs	r0, r0, r0, lsr r0
    22d4:	00117a10 	andseq	r7, r1, r0, lsl sl
    22d8:	060d0100 	streq	r0, [sp], -r0, lsl #2
    22dc:	080007e0 	stmdaeq	r0, {r5, r6, r7, r8, r9, sl}
    22e0:	00000064 	andeq	r0, r0, r4, rrx
    22e4:	020f9c01 	andeq	r9, pc, #256	; 0x100
    22e8:	89110000 	ldmdbhi	r1, {}	; <UNPREDICTABLE>
    22ec:	01000011 	tsteq	r0, r1, lsl r0
    22f0:	0077150f 	rsbseq	r1, r7, pc, lsl #10
    22f4:	03050000 	movweq	r0, #20480	; 0x5000
    22f8:	20000034 	andcs	r0, r0, r4, lsr r0
    22fc:	11741200 	cmnne	r4, r0, lsl #4
    2300:	04010000 	streq	r0, [r1], #-0
    2304:	0007a006 	andeq	sl, r7, r6
    2308:	00004008 	andeq	r4, r0, r8
    230c:	009c0100 	addseq	r0, ip, r0, lsl #2
    2310:	00000184 	andeq	r0, r0, r4, lsl #3
    2314:	08190004 	ldmdaeq	r9, {r2}
    2318:	01040000 	mrseq	r0, (UNDEF: 4)
    231c:	00000311 	andeq	r0, r0, r1, lsl r3
    2320:	0011900c 	andseq	r9, r1, ip
    2324:	00090000 	andeq	r0, r9, r0
    2328:	00084400 	andeq	r4, r8, r0, lsl #8
    232c:	00009008 	andeq	r9, r0, r8
    2330:	000bbf00 	andeq	fp, fp, r0, lsl #30
    2334:	06010200 	streq	r0, [r1], -r0, lsl #4
    2338:	000008c7 	andeq	r0, r0, r7, asr #17
    233c:	000d8203 	andeq	r8, sp, r3, lsl #4
    2340:	182b0200 	stmdane	fp!, {r9}
    2344:	00000038 	andeq	r0, r0, r8, lsr r0
    2348:	c5080102 	strgt	r0, [r8, #-258]	; 0xfffffefe
    234c:	02000008 	andeq	r0, r0, #8
    2350:	09220502 	stmdbeq	r2!, {r1, r8, sl}
    2354:	02020000 	andeq	r0, r2, #0
    2358:	00055107 	andeq	r5, r5, r7, lsl #2
    235c:	05040200 	streq	r0, [r4, #-512]	; 0xfffffe00
    2360:	000001f4 	strdeq	r0, [r0], -r4
    2364:	00039b03 	andeq	r9, r3, r3, lsl #22
    2368:	194f0200 	stmdbne	pc, {r9}^	; <UNPREDICTABLE>
    236c:	00000060 	andeq	r0, r0, r0, rrx
    2370:	a1070402 	tstge	r7, r2, lsl #8
    2374:	02000001 	andeq	r0, r0, #1
    2378:	01ef0508 	mvneq	r0, r8, lsl #10
    237c:	08020000 	stmdaeq	r2, {}	; <UNPREDICTABLE>
    2380:	00019c07 	andeq	r9, r1, r7, lsl #24
    2384:	05040400 	streq	r0, [r4, #-1024]	; 0xfffffc00
    2388:	00746e69 	rsbseq	r6, r4, r9, ror #28
    238c:	a6070402 	strge	r0, [r7], -r2, lsl #8
    2390:	03000001 	movweq	r0, #1
    2394:	00000d84 	andeq	r0, r0, r4, lsl #27
    2398:	2c131803 	ldccs	8, cr1, [r3], {3}
    239c:	03000000 	movweq	r0, #0
    23a0:	0000039d 	muleq	r0, sp, r3
    23a4:	54143003 	ldrpl	r3, [r4], #-3
    23a8:	05000000 	streq	r0, [r0, #-0]
    23ac:	000011b7 			; <UNDEFINED> instruction: 0x000011b7
    23b0:	8f110801 	svchi	0x00110801
    23b4:	05000000 	streq	r0, [r0, #-0]
    23b8:	000011f9 	strdeq	r1, [r0], -r9
    23bc:	8f110901 	svchi	0x00110901
    23c0:	05000000 	streq	r0, [r0, #-0]
    23c4:	000011c2 	andeq	r1, r0, r2, asr #3
    23c8:	8f110a01 	svchi	0x00110a01
    23cc:	05000000 	streq	r0, [r0, #-0]
    23d0:	000011cd 	andeq	r1, r0, sp, asr #3
    23d4:	8f110b01 	svchi	0x00110b01
    23d8:	05000000 	streq	r0, [r0, #-0]
    23dc:	000011a8 	andeq	r1, r0, r8, lsr #3
    23e0:	8f110c01 	svchi	0x00110c01
    23e4:	06000000 	streq	r0, [r0], -r0
    23e8:	0000008f 	andeq	r0, r0, pc, lsl #1
    23ec:	000000e7 	andeq	r0, r0, r7, ror #1
    23f0:	00007c07 	andeq	r7, r0, r7, lsl #24
    23f4:	08006100 	stmdaeq	r0, {r8, sp, lr}
    23f8:	000011de 	ldrdeq	r1, [r0], -lr
    23fc:	d70a6601 	strle	r6, [sl, -r1, lsl #12]
    2400:	05000000 	streq	r0, [r0, #-0]
    2404:	00000003 	andeq	r0, r0, r3
    2408:	119a0908 	orrsne	r0, sl, r8, lsl #18
    240c:	d4010000 	strle	r0, [r1], #-0
    2410:	00084a06 	andeq	r4, r8, r6, lsl #20
    2414:	00008a08 	andeq	r8, r0, r8, lsl #20
    2418:	6f9c0100 	svcvs	0x009c0100
    241c:	0a000001 	beq	2428 <isr_vectors-0x7ffdbd8>
    2420:	000010fd 	strdeq	r1, [r0], -sp
    2424:	8f0bd701 	svchi	0x000bd701
    2428:	02000000 	andeq	r0, r0, #0
    242c:	d90a6491 	stmdble	sl, {r0, r4, r7, sl, sp, lr}
    2430:	01000011 	tsteq	r0, r1, lsl r0
    2434:	016f0bd9 	ldrdeq	r0, [pc, #-185]	; 2383 <isr_vectors-0x7ffdc7d>
    2438:	91020000 	mrsls	r0, (UNDEF: 2)
    243c:	11b20a74 			; <UNDEFINED> instruction: 0x11b20a74
    2440:	da010000 	ble	42448 <isr_vectors-0x7fbdbb8>
    2444:	00016f0b 	andeq	r6, r1, fp, lsl #30
    2448:	70910200 	addsvc	r0, r1, r0, lsl #4
    244c:	0008620b 	andeq	r6, r8, fp, lsl #4
    2450:	00002408 	andeq	r2, r0, r8, lsl #8
    2454:	00015700 	andeq	r5, r1, r0, lsl #14
    2458:	00690c00 	rsbeq	r0, r9, r0, lsl #24
    245c:	8f10dc01 	svchi	0x0010dc01
    2460:	02000000 	andeq	r0, r0, #0
    2464:	0d006c91 	stceq	12, cr6, [r0, #-580]	; 0xfffffdbc
    2468:	08000894 	stmdaeq	r0, {r2, r4, r7, fp}
    246c:	0000001e 	andeq	r0, r0, lr, lsl r0
    2470:	0100690c 	tsteq	r0, ip, lsl #18
    2474:	008f10e7 	addeq	r1, pc, r7, ror #1
    2478:	91020000 	mrsls	r0, (UNDEF: 2)
    247c:	0e000068 	cdpeq	0, 0, cr0, cr0, cr8, {3}
    2480:	00008304 	andeq	r8, r0, r4, lsl #6
    2484:	11ea0f00 	mvnne	r0, r0, lsl #30
    2488:	ce010000 	cdpgt	0, 0, cr0, cr1, cr0, {0}
    248c:	00084406 	andeq	r4, r8, r6, lsl #8
    2490:	00000608 	andeq	r0, r0, r8, lsl #12
    2494:	009c0100 	addseq	r0, ip, r0, lsl #2

Disassembly of section .debug_abbrev:

00000000 <.debug_abbrev>:
   0:	25011101 	strcs	r1, [r1, #-257]	; 0xfffffeff
   4:	030b130e 	movweq	r1, #45838	; 0xb30e
   8:	110e1b0e 	tstne	lr, lr, lsl #22
   c:	10061201 	andne	r1, r6, r1, lsl #4
  10:	02000017 	andeq	r0, r0, #23
  14:	0b0b0024 	bleq	2c00ac <isr_vectors-0x7d3ff54>
  18:	0e030b3e 	vmoveq.16	d3[0], r0
  1c:	16030000 	strne	r0, [r3], -r0
  20:	3a0e0300 	bcc	380c28 <isr_vectors-0x7c7f3d8>
  24:	390b3b0b 	stmdbcc	fp, {r0, r1, r3, r8, r9, fp, ip, sp}
  28:	0013490b 	andseq	r4, r3, fp, lsl #18
  2c:	00240400 	eoreq	r0, r4, r0, lsl #8
  30:	0b3e0b0b 	bleq	f82c64 <isr_vectors-0x707d39c>
  34:	00000803 	andeq	r0, r0, r3, lsl #16
  38:	49003505 	stmdbmi	r0, {r0, r2, r8, sl, ip, sp}
  3c:	06000013 			; <UNDEFINED> instruction: 0x06000013
  40:	0b3e0104 	bleq	f80458 <isr_vectors-0x707fba8>
  44:	13490b0b 	movtne	r0, #39691	; 0x9b0b
  48:	0b3b0b3a 	bleq	ec2d38 <isr_vectors-0x713d2c8>
  4c:	13010b39 	movwne	r0, #6969	; 0x1b39
  50:	28070000 	stmdacs	r7, {}	; <UNPREDICTABLE>
  54:	1c0e0300 	stcne	3, cr0, [lr], {-0}
  58:	0800000b 	stmdaeq	r0, {r0, r1, r3}
  5c:	0b0b0113 	bleq	2c04b0 <isr_vectors-0x7d3fb50>
  60:	0b3b0b3a 	bleq	ec2d50 <isr_vectors-0x713d2b0>
  64:	13010b39 	movwne	r0, #6969	; 0x1b39
  68:	0d090000 	stceq	0, cr0, [r9, #-0]
  6c:	3a080300 	bcc	200c74 <isr_vectors-0x7dff38c>
  70:	390b3b0b 	stmdbcc	fp, {r0, r1, r3, r8, r9, fp, ip, sp}
  74:	3813490b 	ldmdacc	r3, {r0, r1, r3, r8, fp, lr}
  78:	0a00000b 	beq	ac <isr_vectors-0x7ffff54>
  7c:	0e03000d 	cdpeq	0, 0, cr0, cr3, cr13, {0}
  80:	0b3b0b3a 	bleq	ec2d70 <isr_vectors-0x713d290>
  84:	13490b39 	movtne	r0, #39737	; 0x9b39
  88:	00000b38 	andeq	r0, r0, r8, lsr fp
  8c:	03000d0b 	movweq	r0, #3339	; 0xd0b
  90:	3b0b3a0e 	blcc	2ce8d0 <isr_vectors-0x7d31730>
  94:	490b3905 	stmdbmi	fp, {r0, r2, r8, fp, ip, sp}
  98:	000b3813 	andeq	r3, fp, r3, lsl r8
  9c:	000d0c00 	andeq	r0, sp, r0, lsl #24
  a0:	0b3a0803 	bleq	e820b4 <isr_vectors-0x717df4c>
  a4:	0b39053b 	bleq	e41598 <isr_vectors-0x71bea68>
  a8:	0b381349 	bleq	e04dd4 <isr_vectors-0x71fb22c>
  ac:	160d0000 	strne	r0, [sp], -r0
  b0:	3a0e0300 	bcc	380cb8 <isr_vectors-0x7c7f348>
  b4:	39053b0b 	stmdbcc	r5, {r0, r1, r3, r8, r9, fp, ip, sp}
  b8:	0013490b 	andseq	r4, r3, fp, lsl #18
  bc:	01130e00 	tsteq	r3, r0, lsl #28
  c0:	0b3a0b0b 	bleq	e82cf4 <isr_vectors-0x717d30c>
  c4:	0b39053b 	bleq	e415b8 <isr_vectors-0x71bea48>
  c8:	00001301 	andeq	r1, r0, r1, lsl #6
  cc:	0300340f 	movweq	r3, #1039	; 0x40f
  d0:	3b0b3a08 	blcc	2ce8f8 <isr_vectors-0x7d31708>
  d4:	490b3905 	stmdbmi	fp, {r0, r2, r8, fp, ip, sp}
  d8:	3c193f13 	ldccc	15, cr3, [r9], {19}
  dc:	10000019 	andne	r0, r0, r9, lsl r0
  e0:	0b0b000f 	bleq	2c0124 <isr_vectors-0x7d3fedc>
  e4:	00001349 	andeq	r1, r0, r9, asr #6
  e8:	03003411 	movweq	r3, #1041	; 0x411
  ec:	3b0b3a0e 	blcc	2ce92c <isr_vectors-0x7d316d4>
  f0:	490b3905 	stmdbmi	fp, {r0, r2, r8, fp, ip, sp}
  f4:	3c193f13 	ldccc	15, cr3, [r9], {19}
  f8:	12000019 	andne	r0, r0, #25
  fc:	0e030034 	mcreq	0, 0, r0, cr3, cr4, {1}
 100:	0b3b0b3a 	bleq	ec2df0 <isr_vectors-0x713d210>
 104:	13490b39 	movtne	r0, #39737	; 0x9b39
 108:	193c193f 	ldmdbne	ip!, {r0, r1, r2, r3, r4, r5, r8, fp, ip}
 10c:	34130000 	ldrcc	r0, [r3], #-0
 110:	3a134700 	bcc	4d1d18 <isr_vectors-0x7b2e2e8>
 114:	390b3b0b 	stmdbcc	fp, {r0, r1, r3, r8, r9, fp, ip, sp}
 118:	0018020b 	andseq	r0, r8, fp, lsl #4
 11c:	002e1400 	eoreq	r1, lr, r0, lsl #8
 120:	0e03193f 			; <UNDEFINED> instruction: 0x0e03193f
 124:	0b3b0b3a 	bleq	ec2e14 <isr_vectors-0x713d1ec>
 128:	19270b39 	stmdbne	r7!, {r0, r3, r4, r5, r8, r9, fp}
 12c:	01111349 	tsteq	r1, r9, asr #6
 130:	18400612 	stmdane	r0, {r1, r4, r9, sl}^
 134:	00194296 	mulseq	r9, r6, r2
 138:	002e1500 	eoreq	r1, lr, r0, lsl #10
 13c:	0e03193f 			; <UNDEFINED> instruction: 0x0e03193f
 140:	0b3b0b3a 	bleq	ec2e30 <isr_vectors-0x713d1d0>
 144:	19270b39 	stmdbne	r7!, {r0, r3, r4, r5, r8, r9, fp}
 148:	06120111 			; <UNDEFINED> instruction: 0x06120111
 14c:	42971840 	addsmi	r1, r7, #64, 16	; 0x400000
 150:	16000019 			; <UNDEFINED> instruction: 0x16000019
 154:	193f002e 	ldmdbne	pc!, {r1, r2, r3, r5}	; <UNPREDICTABLE>
 158:	0b3a0e03 	bleq	e8396c <isr_vectors-0x717c694>
 15c:	0b390b3b 	bleq	e42e50 <isr_vectors-0x71bd1b0>
 160:	06120111 			; <UNDEFINED> instruction: 0x06120111
 164:	42961840 	addsmi	r1, r6, #64, 16	; 0x400000
 168:	00000019 	andeq	r0, r0, r9, lsl r0
 16c:	25011101 	strcs	r1, [r1, #-257]	; 0xfffffeff
 170:	030b130e 	movweq	r1, #45838	; 0xb30e
 174:	110e1b0e 	tstne	lr, lr, lsl #22
 178:	10061201 	andne	r1, r6, r1, lsl #4
 17c:	02000017 	andeq	r0, r0, #23
 180:	0b0b0024 	bleq	2c0218 <isr_vectors-0x7d3fde8>
 184:	0e030b3e 	vmoveq.16	d3[0], r0
 188:	16030000 	strne	r0, [r3], -r0
 18c:	3a0e0300 	bcc	380d94 <isr_vectors-0x7c7f26c>
 190:	390b3b0b 	stmdbcc	fp, {r0, r1, r3, r8, r9, fp, ip, sp}
 194:	0013490b 	andseq	r4, r3, fp, lsl #18
 198:	00240400 	eoreq	r0, r4, r0, lsl #8
 19c:	0b3e0b0b 	bleq	f82dd0 <isr_vectors-0x707d230>
 1a0:	00000803 	andeq	r0, r0, r3, lsl #16
 1a4:	49003505 	stmdbmi	r0, {r0, r2, r8, sl, ip, sp}
 1a8:	06000013 			; <UNDEFINED> instruction: 0x06000013
 1ac:	0b3e0104 	bleq	f805c4 <isr_vectors-0x707fa3c>
 1b0:	13490b0b 	movtne	r0, #39691	; 0x9b0b
 1b4:	0b3b0b3a 	bleq	ec2ea4 <isr_vectors-0x713d15c>
 1b8:	13010b39 	movwne	r0, #6969	; 0x1b39
 1bc:	28070000 	stmdacs	r7, {}	; <UNPREDICTABLE>
 1c0:	1c0e0300 	stcne	3, cr0, [lr], {-0}
 1c4:	0800000b 	stmdaeq	r0, {r0, r1, r3}
 1c8:	0b0b0113 	bleq	2c061c <isr_vectors-0x7d3f9e4>
 1cc:	053b0b3a 	ldreq	r0, [fp, #-2874]!	; 0xfffff4c6
 1d0:	13010b39 	movwne	r0, #6969	; 0x1b39
 1d4:	0d090000 	stceq	0, cr0, [r9, #-0]
 1d8:	3a080300 	bcc	200de0 <isr_vectors-0x7dff220>
 1dc:	39053b0b 	stmdbcc	r5, {r0, r1, r3, r8, r9, fp, ip, sp}
 1e0:	3813490b 	ldmdacc	r3, {r0, r1, r3, r8, fp, lr}
 1e4:	0a00000b 	beq	218 <isr_vectors-0x7fffde8>
 1e8:	0e03000d 	cdpeq	0, 0, cr0, cr3, cr13, {0}
 1ec:	053b0b3a 	ldreq	r0, [fp, #-2874]!	; 0xfffff4c6
 1f0:	13490b39 	movtne	r0, #39737	; 0x9b39
 1f4:	00000b38 	andeq	r0, r0, r8, lsr fp
 1f8:	0300160b 	movweq	r1, #1547	; 0x60b
 1fc:	3b0b3a0e 	blcc	2cea3c <isr_vectors-0x7d315c4>
 200:	490b3905 	stmdbmi	fp, {r0, r2, r8, fp, ip, sp}
 204:	0c000013 	stceq	0, cr0, [r0], {19}
 208:	0e030034 	mcreq	0, 0, r0, cr3, cr4, {1}
 20c:	053b0b3a 	ldreq	r0, [fp, #-2874]!	; 0xfffff4c6
 210:	13490b39 	movtne	r0, #39737	; 0x9b39
 214:	193c193f 	ldmdbne	ip!, {r0, r1, r2, r3, r4, r5, r8, fp, ip}
 218:	0f0d0000 	svceq	0x000d0000
 21c:	490b0b00 	stmdbmi	fp, {r8, r9, fp}
 220:	0e000013 	mcreq	0, 0, r0, cr0, cr3, {0}
 224:	193f012e 	ldmdbne	pc!, {r1, r2, r3, r5, r8}	; <UNPREDICTABLE>
 228:	0b3a0e03 	bleq	e83a3c <isr_vectors-0x717c5c4>
 22c:	0b390b3b 	bleq	e42f20 <isr_vectors-0x71bd0e0>
 230:	01111927 	tsteq	r1, r7, lsr #18
 234:	18400612 	stmdane	r0, {r1, r4, r9, sl}^
 238:	01194296 			; <UNDEFINED> instruction: 0x01194296
 23c:	0f000013 	svceq	0x00000013
 240:	0e030005 	cdpeq	0, 0, cr0, cr3, cr5, {0}
 244:	0b3b0b3a 	bleq	ec2f34 <isr_vectors-0x713d0cc>
 248:	13490b39 	movtne	r0, #39737	; 0x9b39
 24c:	00001802 	andeq	r1, r0, r2, lsl #16
 250:	3f012e10 	svccc	0x00012e10
 254:	3a0e0319 	bcc	380ec0 <isr_vectors-0x7c7f140>
 258:	390b3b0b 	stmdbcc	fp, {r0, r1, r3, r8, r9, fp, ip, sp}
 25c:	1119270b 	tstne	r9, fp, lsl #14
 260:	40061201 	andmi	r1, r6, r1, lsl #4
 264:	19429618 	stmdbne	r2, {r3, r4, r9, sl, ip, pc}^
 268:	01000000 	mrseq	r0, (UNDEF: 0)
 26c:	0e250111 	mcreq	1, 1, r0, cr5, cr1, {0}
 270:	0e030b13 	vmoveq.32	d3[0], r0
 274:	01110e1b 	tsteq	r1, fp, lsl lr
 278:	17100612 			; <UNDEFINED> instruction: 0x17100612
 27c:	24020000 	strcs	r0, [r2], #-0
 280:	3e0b0b00 	vmlacc.f64	d0, d11, d0
 284:	000e030b 	andeq	r0, lr, fp, lsl #6
 288:	00160300 	andseq	r0, r6, r0, lsl #6
 28c:	0b3a0e03 	bleq	e83aa0 <isr_vectors-0x717c560>
 290:	0b390b3b 	bleq	e42f84 <isr_vectors-0x71bd07c>
 294:	00001349 	andeq	r1, r0, r9, asr #6
 298:	0b002404 	bleq	92b0 <isr_vectors-0x7ff6d50>
 29c:	030b3e0b 	movweq	r3, #48651	; 0xbe0b
 2a0:	05000008 	streq	r0, [r0, #-8]
 2a4:	13490035 	movtne	r0, #36917	; 0x9035
 2a8:	04060000 	streq	r0, [r6], #-0
 2ac:	0b0b3e01 	bleq	2cfab8 <isr_vectors-0x7d30548>
 2b0:	3a13490b 	bcc	4d26e4 <isr_vectors-0x7b2d91c>
 2b4:	390b3b0b 	stmdbcc	fp, {r0, r1, r3, r8, r9, fp, ip, sp}
 2b8:	0013010b 	andseq	r0, r3, fp, lsl #2
 2bc:	00280700 	eoreq	r0, r8, r0, lsl #14
 2c0:	0b1c0e03 	bleq	703ad4 <isr_vectors-0x78fc52c>
 2c4:	13080000 	movwne	r0, #32768	; 0x8000
 2c8:	3a0b0b01 	bcc	2c2ed4 <isr_vectors-0x7d3d12c>
 2cc:	39053b0b 	stmdbcc	r5, {r0, r1, r3, r8, r9, fp, ip, sp}
 2d0:	0013010b 	andseq	r0, r3, fp, lsl #2
 2d4:	000d0900 	andeq	r0, sp, r0, lsl #18
 2d8:	0b3a0e03 	bleq	e83aec <isr_vectors-0x717c514>
 2dc:	0b39053b 	bleq	e417d0 <isr_vectors-0x71be830>
 2e0:	0b381349 	bleq	e0500c <isr_vectors-0x71faff4>
 2e4:	0d0a0000 	stceq	0, cr0, [sl, #-0]
 2e8:	3a080300 	bcc	200ef0 <isr_vectors-0x7dff110>
 2ec:	39053b0b 	stmdbcc	r5, {r0, r1, r3, r8, r9, fp, ip, sp}
 2f0:	3813490b 	ldmdacc	r3, {r0, r1, r3, r8, fp, lr}
 2f4:	0b00000b 	bleq	328 <isr_vectors-0x7fffcd8>
 2f8:	0e030016 	mcreq	0, 0, r0, cr3, cr6, {0}
 2fc:	053b0b3a 	ldreq	r0, [fp, #-2874]!	; 0xfffff4c6
 300:	13490b39 	movtne	r0, #39737	; 0x9b39
 304:	0f0c0000 	svceq	0x000c0000
 308:	490b0b00 	stmdbmi	fp, {r8, r9, fp}
 30c:	0d000013 	stceq	0, cr0, [r0, #-76]	; 0xffffffb4
 310:	193f012e 	ldmdbne	pc!, {r1, r2, r3, r5, r8}	; <UNPREDICTABLE>
 314:	0b3a0e03 	bleq	e83b28 <isr_vectors-0x717c4d8>
 318:	0b390b3b 	bleq	e4300c <isr_vectors-0x71bcff4>
 31c:	01111927 	tsteq	r1, r7, lsr #18
 320:	18400612 	stmdane	r0, {r1, r4, r9, sl}^
 324:	01194296 			; <UNDEFINED> instruction: 0x01194296
 328:	0e000013 	mcreq	0, 0, r0, cr0, cr3, {0}
 32c:	0e030005 	cdpeq	0, 0, cr0, cr3, cr5, {0}
 330:	0b3b0b3a 	bleq	ec3020 <isr_vectors-0x713cfe0>
 334:	13490b39 	movtne	r0, #39737	; 0x9b39
 338:	00001802 	andeq	r1, r0, r2, lsl #16
 33c:	0300050f 	movweq	r0, #1295	; 0x50f
 340:	3b0b3a08 	blcc	2ceb68 <isr_vectors-0x7d31498>
 344:	490b390b 	stmdbmi	fp, {r0, r1, r3, r8, fp, ip, sp}
 348:	00180213 	andseq	r0, r8, r3, lsl r2
 34c:	012e1000 			; <UNDEFINED> instruction: 0x012e1000
 350:	0e03193f 			; <UNDEFINED> instruction: 0x0e03193f
 354:	0b3b0b3a 	bleq	ec3044 <isr_vectors-0x713cfbc>
 358:	19270b39 	stmdbne	r7!, {r0, r3, r4, r5, r8, r9, fp}
 35c:	06120111 			; <UNDEFINED> instruction: 0x06120111
 360:	42961840 	addsmi	r1, r6, #64, 16	; 0x400000
 364:	00000019 	andeq	r0, r0, r9, lsl r0
 368:	25011101 	strcs	r1, [r1, #-257]	; 0xfffffeff
 36c:	030b130e 	movweq	r1, #45838	; 0xb30e
 370:	110e1b0e 	tstne	lr, lr, lsl #22
 374:	10061201 	andne	r1, r6, r1, lsl #4
 378:	02000017 	andeq	r0, r0, #23
 37c:	0b0b0024 	bleq	2c0414 <isr_vectors-0x7d3fbec>
 380:	0e030b3e 	vmoveq.16	d3[0], r0
 384:	16030000 	strne	r0, [r3], -r0
 388:	3a0e0300 	bcc	380f90 <isr_vectors-0x7c7f070>
 38c:	390b3b0b 	stmdbcc	fp, {r0, r1, r3, r8, r9, fp, ip, sp}
 390:	0013490b 	andseq	r4, r3, fp, lsl #18
 394:	00240400 	eoreq	r0, r4, r0, lsl #8
 398:	0b3e0b0b 	bleq	f82fcc <isr_vectors-0x707d034>
 39c:	00000803 	andeq	r0, r0, r3, lsl #16
 3a0:	49003505 	stmdbmi	r0, {r0, r2, r8, sl, ip, sp}
 3a4:	06000013 			; <UNDEFINED> instruction: 0x06000013
 3a8:	0b3e0104 	bleq	f807c0 <isr_vectors-0x707f840>
 3ac:	13490b0b 	movtne	r0, #39691	; 0x9b0b
 3b0:	0b3b0b3a 	bleq	ec30a0 <isr_vectors-0x713cf60>
 3b4:	13010b39 	movwne	r0, #6969	; 0x1b39
 3b8:	28070000 	stmdacs	r7, {}	; <UNPREDICTABLE>
 3bc:	1c0e0300 	stcne	3, cr0, [lr], {-0}
 3c0:	0800000b 	stmdaeq	r0, {r0, r1, r3}
 3c4:	0b0b0113 	bleq	2c0818 <isr_vectors-0x7d3f7e8>
 3c8:	053b0b3a 	ldreq	r0, [fp, #-2874]!	; 0xfffff4c6
 3cc:	13010b39 	movwne	r0, #6969	; 0x1b39
 3d0:	0d090000 	stceq	0, cr0, [r9, #-0]
 3d4:	3a080300 	bcc	200fdc <isr_vectors-0x7dff024>
 3d8:	39053b0b 	stmdbcc	r5, {r0, r1, r3, r8, r9, fp, ip, sp}
 3dc:	3813490b 	ldmdacc	r3, {r0, r1, r3, r8, fp, lr}
 3e0:	0a00000b 	beq	414 <isr_vectors-0x7fffbec>
 3e4:	0e03000d 	cdpeq	0, 0, cr0, cr3, cr13, {0}
 3e8:	053b0b3a 	ldreq	r0, [fp, #-2874]!	; 0xfffff4c6
 3ec:	13490b39 	movtne	r0, #39737	; 0x9b39
 3f0:	00000b38 	andeq	r0, r0, r8, lsr fp
 3f4:	0300160b 	movweq	r1, #1547	; 0x60b
 3f8:	3b0b3a0e 	blcc	2cec38 <isr_vectors-0x7d313c8>
 3fc:	490b3905 	stmdbmi	fp, {r0, r2, r8, fp, ip, sp}
 400:	0c000013 	stceq	0, cr0, [r0], {19}
 404:	08030034 	stmdaeq	r3, {r2, r4, r5}
 408:	053b0b3a 	ldreq	r0, [fp, #-2874]!	; 0xfffff4c6
 40c:	13490b39 	movtne	r0, #39737	; 0x9b39
 410:	193c193f 	ldmdbne	ip!, {r0, r1, r2, r3, r4, r5, r8, fp, ip}
 414:	0f0d0000 	svceq	0x000d0000
 418:	490b0b00 	stmdbmi	fp, {r8, r9, fp}
 41c:	0e000013 	mcreq	0, 0, r0, cr0, cr3, {0}
 420:	193f012e 	ldmdbne	pc!, {r1, r2, r3, r5, r8}	; <UNPREDICTABLE>
 424:	0b3a0e03 	bleq	e83c38 <isr_vectors-0x717c3c8>
 428:	0b390b3b 	bleq	e4311c <isr_vectors-0x71bcee4>
 42c:	01111927 	tsteq	r1, r7, lsr #18
 430:	18400612 	stmdane	r0, {r1, r4, r9, sl}^
 434:	00194296 	mulseq	r9, r6, r2
 438:	00050f00 	andeq	r0, r5, r0, lsl #30
 43c:	0b3a0e03 	bleq	e83c50 <isr_vectors-0x717c3b0>
 440:	0b390b3b 	bleq	e43134 <isr_vectors-0x71bcecc>
 444:	18021349 	stmdane	r2, {r0, r3, r6, r8, r9, ip}
 448:	01000000 	mrseq	r0, (UNDEF: 0)
 44c:	0e250111 	mcreq	1, 1, r0, cr5, cr1, {0}
 450:	0e030b13 	vmoveq.32	d3[0], r0
 454:	01110e1b 	tsteq	r1, fp, lsl lr
 458:	17100612 			; <UNDEFINED> instruction: 0x17100612
 45c:	16020000 	strne	r0, [r2], -r0
 460:	3a0e0300 	bcc	381068 <isr_vectors-0x7c7ef98>
 464:	390b3b0b 	stmdbcc	fp, {r0, r1, r3, r8, r9, fp, ip, sp}
 468:	0013490b 	andseq	r4, r3, fp, lsl #18
 46c:	00240300 	eoreq	r0, r4, r0, lsl #6
 470:	0b3e0b0b 	bleq	f830a4 <isr_vectors-0x707cf5c>
 474:	00000803 	andeq	r0, r0, r3, lsl #16
 478:	0b002404 	bleq	9490 <isr_vectors-0x7ff6b70>
 47c:	030b3e0b 	movweq	r3, #48651	; 0xbe0b
 480:	0500000e 	streq	r0, [r0, #-14]
 484:	13490035 	movtne	r0, #36917	; 0x9035
 488:	04060000 	streq	r0, [r6], #-0
 48c:	0b0b3e01 	bleq	2cfc98 <isr_vectors-0x7d30368>
 490:	3a13490b 	bcc	4d28c4 <isr_vectors-0x7b2d73c>
 494:	390b3b0b 	stmdbcc	fp, {r0, r1, r3, r8, r9, fp, ip, sp}
 498:	0013010b 	andseq	r0, r3, fp, lsl #2
 49c:	00280700 	eoreq	r0, r8, r0, lsl #14
 4a0:	0b1c0e03 	bleq	703cb4 <isr_vectors-0x78fc34c>
 4a4:	13080000 	movwne	r0, #32768	; 0x8000
 4a8:	3a0b0b01 	bcc	2c30b4 <isr_vectors-0x7d3cf4c>
 4ac:	390b3b0b 	stmdbcc	fp, {r0, r1, r3, r8, r9, fp, ip, sp}
 4b0:	0013010b 	andseq	r0, r3, fp, lsl #2
 4b4:	000d0900 	andeq	r0, sp, r0, lsl #18
 4b8:	0b3a0803 	bleq	e824cc <isr_vectors-0x717db34>
 4bc:	0b390b3b 	bleq	e431b0 <isr_vectors-0x71bce50>
 4c0:	0b381349 	bleq	e051ec <isr_vectors-0x71fae14>
 4c4:	0d0a0000 	stceq	0, cr0, [sl, #-0]
 4c8:	3a0e0300 	bcc	3810d0 <isr_vectors-0x7c7ef30>
 4cc:	390b3b0b 	stmdbcc	fp, {r0, r1, r3, r8, r9, fp, ip, sp}
 4d0:	3813490b 	ldmdacc	r3, {r0, r1, r3, r8, fp, lr}
 4d4:	0b00000b 	bleq	508 <isr_vectors-0x7fffaf8>
 4d8:	0e03000d 	cdpeq	0, 0, cr0, cr3, cr13, {0}
 4dc:	053b0b3a 	ldreq	r0, [fp, #-2874]!	; 0xfffff4c6
 4e0:	13490b39 	movtne	r0, #39737	; 0x9b39
 4e4:	00000b38 	andeq	r0, r0, r8, lsr fp
 4e8:	03000d0c 	movweq	r0, #3340	; 0xd0c
 4ec:	3b0b3a08 	blcc	2ced14 <isr_vectors-0x7d312ec>
 4f0:	490b3905 	stmdbmi	fp, {r0, r2, r8, fp, ip, sp}
 4f4:	000b3813 	andeq	r3, fp, r3, lsl r8
 4f8:	00160d00 	andseq	r0, r6, r0, lsl #26
 4fc:	0b3a0e03 	bleq	e83d10 <isr_vectors-0x717c2f0>
 500:	0b39053b 	bleq	e419f4 <isr_vectors-0x71be60c>
 504:	00001349 	andeq	r1, r0, r9, asr #6
 508:	0300340e 	movweq	r3, #1038	; 0x40e
 50c:	3b0b3a08 	blcc	2ced34 <isr_vectors-0x7d312cc>
 510:	490b3905 	stmdbmi	fp, {r0, r2, r8, fp, ip, sp}
 514:	3c193f13 	ldccc	15, cr3, [r9], {19}
 518:	0f000019 	svceq	0x00000019
 51c:	0b0b000f 	bleq	2c0560 <isr_vectors-0x7d3faa0>
 520:	00001349 	andeq	r1, r0, r9, asr #6
 524:	3f012e10 	svccc	0x00012e10
 528:	3a0e0319 	bcc	381194 <isr_vectors-0x7c7ee6c>
 52c:	390b3b0b 	stmdbcc	fp, {r0, r1, r3, r8, r9, fp, ip, sp}
 530:	1119270b 	tstne	r9, fp, lsl #14
 534:	40061201 	andmi	r1, r6, r1, lsl #4
 538:	19429618 	stmdbne	r2, {r3, r4, r9, sl, ip, pc}^
 53c:	00001301 	andeq	r1, r0, r1, lsl #6
 540:	03000511 	movweq	r0, #1297	; 0x511
 544:	3b0b3a0e 	blcc	2ced84 <isr_vectors-0x7d3127c>
 548:	490b390b 	stmdbmi	fp, {r0, r1, r3, r8, fp, ip, sp}
 54c:	00180213 	andseq	r0, r8, r3, lsl r2
 550:	012e1200 			; <UNDEFINED> instruction: 0x012e1200
 554:	0e03193f 			; <UNDEFINED> instruction: 0x0e03193f
 558:	0b3b0b3a 	bleq	ec3248 <isr_vectors-0x713cdb8>
 55c:	19270b39 	stmdbne	r7!, {r0, r3, r4, r5, r8, r9, fp}
 560:	06120111 			; <UNDEFINED> instruction: 0x06120111
 564:	42961840 	addsmi	r1, r6, #64, 16	; 0x400000
 568:	00000019 	andeq	r0, r0, r9, lsl r0
 56c:	25011101 	strcs	r1, [r1, #-257]	; 0xfffffeff
 570:	030b130e 	movweq	r1, #45838	; 0xb30e
 574:	110e1b0e 	tstne	lr, lr, lsl #22
 578:	10061201 	andne	r1, r6, r1, lsl #4
 57c:	02000017 	andeq	r0, r0, #23
 580:	0b0b0024 	bleq	2c0618 <isr_vectors-0x7d3f9e8>
 584:	0e030b3e 	vmoveq.16	d3[0], r0
 588:	16030000 	strne	r0, [r3], -r0
 58c:	3a0e0300 	bcc	381194 <isr_vectors-0x7c7ee6c>
 590:	390b3b0b 	stmdbcc	fp, {r0, r1, r3, r8, r9, fp, ip, sp}
 594:	0013490b 	andseq	r4, r3, fp, lsl #18
 598:	00240400 	eoreq	r0, r4, r0, lsl #8
 59c:	0b3e0b0b 	bleq	f831d0 <isr_vectors-0x707ce30>
 5a0:	00000803 	andeq	r0, r0, r3, lsl #16
 5a4:	49003505 	stmdbmi	r0, {r0, r2, r8, sl, ip, sp}
 5a8:	06000013 			; <UNDEFINED> instruction: 0x06000013
 5ac:	193f012e 	ldmdbne	pc!, {r1, r2, r3, r5, r8}	; <UNPREDICTABLE>
 5b0:	0b3a0e03 	bleq	e83dc4 <isr_vectors-0x717c23c>
 5b4:	0b390b3b 	bleq	e432a8 <isr_vectors-0x71bcd58>
 5b8:	01111927 	tsteq	r1, r7, lsr #18
 5bc:	18400612 	stmdane	r0, {r1, r4, r9, sl}^
 5c0:	01194297 			; <UNDEFINED> instruction: 0x01194297
 5c4:	07000013 	smladeq	r0, r3, r0, r0
 5c8:	0e030005 	cdpeq	0, 0, cr0, cr3, cr5, {0}
 5cc:	0b3b0b3a 	bleq	ec32bc <isr_vectors-0x713cd44>
 5d0:	13490b39 	movtne	r0, #39737	; 0x9b39
 5d4:	00001802 	andeq	r1, r0, r2, lsl #16
 5d8:	03003408 	movweq	r3, #1032	; 0x408
 5dc:	3b0b3a0e 	blcc	2cee1c <isr_vectors-0x7d311e4>
 5e0:	490b390b 	stmdbmi	fp, {r0, r1, r3, r8, fp, ip, sp}
 5e4:	00180213 	andseq	r0, r8, r3, lsl r2
 5e8:	010b0900 	tsteq	fp, r0, lsl #18
 5ec:	06120111 			; <UNDEFINED> instruction: 0x06120111
 5f0:	340a0000 	strcc	r0, [sl], #-0
 5f4:	3a080300 	bcc	2011fc <isr_vectors-0x7dfee04>
 5f8:	390b3b0b 	stmdbcc	fp, {r0, r1, r3, r8, r9, fp, ip, sp}
 5fc:	0213490b 	andseq	r4, r3, #180224	; 0x2c000
 600:	0b000018 	bleq	668 <isr_vectors-0x7fff998>
 604:	0b0b000f 	bleq	2c0648 <isr_vectors-0x7d3f9b8>
 608:	00001349 	andeq	r1, r0, r9, asr #6
 60c:	01110100 	tsteq	r1, r0, lsl #2
 610:	0b130e25 	bleq	4c3eac <isr_vectors-0x7b3c154>
 614:	0e1b0e03 	cdpeq	14, 1, cr0, cr11, cr3, {0}
 618:	00001710 	andeq	r1, r0, r0, lsl r7
 61c:	0b002402 	bleq	962c <isr_vectors-0x7ff69d4>
 620:	030b3e0b 	movweq	r3, #48651	; 0xbe0b
 624:	0300000e 	movweq	r0, #14
 628:	0e030016 	mcreq	0, 0, r0, cr3, cr6, {0}
 62c:	0b3b0b3a 	bleq	ec331c <isr_vectors-0x713cce4>
 630:	13490b39 	movtne	r0, #39737	; 0x9b39
 634:	24040000 	strcs	r0, [r4], #-0
 638:	3e0b0b00 	vmlacc.f64	d0, d11, d0
 63c:	0008030b 	andeq	r0, r8, fp, lsl #6
 640:	00350500 	eorseq	r0, r5, r0, lsl #10
 644:	00001349 	andeq	r1, r0, r9, asr #6
 648:	0b011306 	bleq	45268 <isr_vectors-0x7fbad98>
 64c:	3b0b3a0b 	blcc	2cee80 <isr_vectors-0x7d31180>
 650:	010b390b 	tsteq	fp, fp, lsl #18
 654:	07000013 	smladeq	r0, r3, r0, r0
 658:	0803000d 	stmdaeq	r3, {r0, r2, r3}
 65c:	0b3b0b3a 	bleq	ec334c <isr_vectors-0x713ccb4>
 660:	13490b39 	movtne	r0, #39737	; 0x9b39
 664:	00000b38 	andeq	r0, r0, r8, lsr fp
 668:	03000d08 	movweq	r0, #3336	; 0xd08
 66c:	3b0b3a0e 	blcc	2ceeac <isr_vectors-0x7d31154>
 670:	490b390b 	stmdbmi	fp, {r0, r1, r3, r8, fp, ip, sp}
 674:	000b3813 	andeq	r3, fp, r3, lsl r8
 678:	000d0900 	andeq	r0, sp, r0, lsl #18
 67c:	0b3a0e03 	bleq	e83e90 <isr_vectors-0x717c170>
 680:	0b39053b 	bleq	e41b74 <isr_vectors-0x71be48c>
 684:	0b381349 	bleq	e053b0 <isr_vectors-0x71fac50>
 688:	0d0a0000 	stceq	0, cr0, [sl, #-0]
 68c:	3a080300 	bcc	201294 <isr_vectors-0x7dfed6c>
 690:	39053b0b 	stmdbcc	r5, {r0, r1, r3, r8, r9, fp, ip, sp}
 694:	3813490b 	ldmdacc	r3, {r0, r1, r3, r8, fp, lr}
 698:	0b00000b 	bleq	6cc <isr_vectors-0x7fff934>
 69c:	0e030016 	mcreq	0, 0, r0, cr3, cr6, {0}
 6a0:	053b0b3a 	ldreq	r0, [fp, #-2874]!	; 0xfffff4c6
 6a4:	13490b39 	movtne	r0, #39737	; 0x9b39
 6a8:	130c0000 	movwne	r0, #49152	; 0xc000
 6ac:	3a0b0b01 	bcc	2c32b8 <isr_vectors-0x7d3cd48>
 6b0:	39053b0b 	stmdbcc	r5, {r0, r1, r3, r8, r9, fp, ip, sp}
 6b4:	0013010b 	andseq	r0, r3, fp, lsl #2
 6b8:	00340d00 	eorseq	r0, r4, r0, lsl #26
 6bc:	0b3a0803 	bleq	e826d0 <isr_vectors-0x717d930>
 6c0:	0b39053b 	bleq	e41bb4 <isr_vectors-0x71be44c>
 6c4:	193f1349 	ldmdbne	pc!, {r0, r3, r6, r8, r9, ip}	; <UNPREDICTABLE>
 6c8:	0000193c 	andeq	r1, r0, ip, lsr r9
 6cc:	0b000f0e 	bleq	430c <isr_vectors-0x7ffbcf4>
 6d0:	0013490b 	andseq	r4, r3, fp, lsl #18
 6d4:	00340f00 	eorseq	r0, r4, r0, lsl #30
 6d8:	0b3a0e03 	bleq	e83eec <isr_vectors-0x717c114>
 6dc:	0b39053b 	bleq	e41bd0 <isr_vectors-0x71be430>
 6e0:	193f1349 	ldmdbne	pc!, {r0, r3, r6, r8, r9, ip}	; <UNPREDICTABLE>
 6e4:	0000193c 	andeq	r1, r0, ip, lsr r9
 6e8:	47003410 	smladmi	r0, r0, r4, r3
 6ec:	3b0b3a13 	blcc	2cef40 <isr_vectors-0x7d310c0>
 6f0:	020b390b 	andeq	r3, fp, #180224	; 0x2c000
 6f4:	00000018 	andeq	r0, r0, r8, lsl r0
 6f8:	25011101 	strcs	r1, [r1, #-257]	; 0xfffffeff
 6fc:	030b130e 	movweq	r1, #45838	; 0xb30e
 700:	110e1b0e 	tstne	lr, lr, lsl #22
 704:	10061201 	andne	r1, r6, r1, lsl #4
 708:	02000017 	andeq	r0, r0, #23
 70c:	0b0b0024 	bleq	2c07a4 <isr_vectors-0x7d3f85c>
 710:	0e030b3e 	vmoveq.16	d3[0], r0
 714:	16030000 	strne	r0, [r3], -r0
 718:	3a0e0300 	bcc	381320 <isr_vectors-0x7c7ece0>
 71c:	390b3b0b 	stmdbcc	fp, {r0, r1, r3, r8, r9, fp, ip, sp}
 720:	0013490b 	andseq	r4, r3, fp, lsl #18
 724:	00240400 	eoreq	r0, r4, r0, lsl #8
 728:	0b3e0b0b 	bleq	f8335c <isr_vectors-0x707cca4>
 72c:	00000803 	andeq	r0, r0, r3, lsl #16
 730:	49003505 	stmdbmi	r0, {r0, r2, r8, sl, ip, sp}
 734:	06000013 			; <UNDEFINED> instruction: 0x06000013
 738:	0b3e0104 	bleq	f80b50 <isr_vectors-0x707f4b0>
 73c:	13490b0b 	movtne	r0, #39691	; 0x9b0b
 740:	0b3b0b3a 	bleq	ec3430 <isr_vectors-0x713cbd0>
 744:	13010b39 	movwne	r0, #6969	; 0x1b39
 748:	28070000 	stmdacs	r7, {}	; <UNPREDICTABLE>
 74c:	1c0e0300 	stcne	3, cr0, [lr], {-0}
 750:	0800000b 	stmdaeq	r0, {r0, r1, r3}
 754:	0b0b0113 	bleq	2c0ba8 <isr_vectors-0x7d3f458>
 758:	053b0b3a 	ldreq	r0, [fp, #-2874]!	; 0xfffff4c6
 75c:	13010b39 	movwne	r0, #6969	; 0x1b39
 760:	0d090000 	stceq	0, cr0, [r9, #-0]
 764:	3a0e0300 	bcc	38136c <isr_vectors-0x7c7ec94>
 768:	39053b0b 	stmdbcc	r5, {r0, r1, r3, r8, r9, fp, ip, sp}
 76c:	3813490b 	ldmdacc	r3, {r0, r1, r3, r8, fp, lr}
 770:	0a00000b 	beq	7a4 <isr_vectors-0x7fff85c>
 774:	0803000d 	stmdaeq	r3, {r0, r2, r3}
 778:	053b0b3a 	ldreq	r0, [fp, #-2874]!	; 0xfffff4c6
 77c:	13490b39 	movtne	r0, #39737	; 0x9b39
 780:	00000b38 	andeq	r0, r0, r8, lsr fp
 784:	0300160b 	movweq	r1, #1547	; 0x60b
 788:	3b0b3a0e 	blcc	2cefc8 <isr_vectors-0x7d31038>
 78c:	490b3905 	stmdbmi	fp, {r0, r2, r8, fp, ip, sp}
 790:	0c000013 	stceq	0, cr0, [r0], {19}
 794:	0b0b000f 	bleq	2c07d8 <isr_vectors-0x7d3f828>
 798:	00001349 	andeq	r1, r0, r9, asr #6
 79c:	0300340d 	movweq	r3, #1037	; 0x40d
 7a0:	3b0b3a0e 	blcc	2cefe0 <isr_vectors-0x7d31020>
 7a4:	490b3905 	stmdbmi	fp, {r0, r2, r8, fp, ip, sp}
 7a8:	3c193f13 	ldccc	15, cr3, [r9], {19}
 7ac:	0e000019 	mcreq	0, 0, r0, cr0, cr9, {0}
 7b0:	0e030034 	mcreq	0, 0, r0, cr3, cr4, {1}
 7b4:	0b3b0b3a 	bleq	ec34a4 <isr_vectors-0x713cb5c>
 7b8:	13490b39 	movtne	r0, #39737	; 0x9b39
 7bc:	193c193f 	ldmdbne	ip!, {r0, r1, r2, r3, r4, r5, r8, fp, ip}
 7c0:	340f0000 	strcc	r0, [pc], #-0	; 7c8 <isr_vectors-0x7fff838>
 7c4:	3a0e0300 	bcc	3813cc <isr_vectors-0x7c7ec34>
 7c8:	390b3b0b 	stmdbcc	fp, {r0, r1, r3, r8, r9, fp, ip, sp}
 7cc:	3f13490b 	svccc	0x0013490b
 7d0:	00180219 	andseq	r0, r8, r9, lsl r2
 7d4:	012e1000 			; <UNDEFINED> instruction: 0x012e1000
 7d8:	0e03193f 			; <UNDEFINED> instruction: 0x0e03193f
 7dc:	0b3b0b3a 	bleq	ec34cc <isr_vectors-0x713cb34>
 7e0:	01110b39 	tsteq	r1, r9, lsr fp
 7e4:	18400612 	stmdane	r0, {r1, r4, r9, sl}^
 7e8:	01194296 			; <UNDEFINED> instruction: 0x01194296
 7ec:	11000013 	tstne	r0, r3, lsl r0
 7f0:	0e030034 	mcreq	0, 0, r0, cr3, cr4, {1}
 7f4:	0b3b0b3a 	bleq	ec34e4 <isr_vectors-0x713cb1c>
 7f8:	13490b39 	movtne	r0, #39737	; 0x9b39
 7fc:	00001802 	andeq	r1, r0, r2, lsl #16
 800:	3f002e12 	svccc	0x00002e12
 804:	3a0e0319 	bcc	381470 <isr_vectors-0x7c7eb90>
 808:	390b3b0b 	stmdbcc	fp, {r0, r1, r3, r8, r9, fp, ip, sp}
 80c:	1201110b 	andne	r1, r1, #-1073741822	; 0xc0000002
 810:	96184006 	ldrls	r4, [r8], -r6
 814:	00001942 	andeq	r1, r0, r2, asr #18
 818:	01110100 	tsteq	r1, r0, lsl #2
 81c:	0b130e25 	bleq	4c40b8 <isr_vectors-0x7b3bf48>
 820:	0e1b0e03 	cdpeq	14, 1, cr0, cr11, cr3, {0}
 824:	06120111 			; <UNDEFINED> instruction: 0x06120111
 828:	00001710 	andeq	r1, r0, r0, lsl r7
 82c:	0b002402 	bleq	983c <isr_vectors-0x7ff67c4>
 830:	030b3e0b 	movweq	r3, #48651	; 0xbe0b
 834:	0300000e 	movweq	r0, #14
 838:	0e030016 	mcreq	0, 0, r0, cr3, cr6, {0}
 83c:	0b3b0b3a 	bleq	ec352c <isr_vectors-0x713cad4>
 840:	13490b39 	movtne	r0, #39737	; 0x9b39
 844:	24040000 	strcs	r0, [r4], #-0
 848:	3e0b0b00 	vmlacc.f64	d0, d11, d0
 84c:	0008030b 	andeq	r0, r8, fp, lsl #6
 850:	00340500 	eorseq	r0, r4, r0, lsl #10
 854:	0b3a0e03 	bleq	e84068 <isr_vectors-0x717bf98>
 858:	0b390b3b 	bleq	e4354c <isr_vectors-0x71bcab4>
 85c:	193f1349 	ldmdbne	pc!, {r0, r3, r6, r8, r9, ip}	; <UNPREDICTABLE>
 860:	0000193c 	andeq	r1, r0, ip, lsr r9
 864:	49010106 	stmdbmi	r1, {r1, r2, r8}
 868:	00130113 	andseq	r0, r3, r3, lsl r1
 86c:	00210700 	eoreq	r0, r1, r0, lsl #14
 870:	0b2f1349 	bleq	bc559c <isr_vectors-0x743aa64>
 874:	34080000 	strcc	r0, [r8], #-0
 878:	3a0e0300 	bcc	381480 <isr_vectors-0x7c7eb80>
 87c:	390b3b0b 	stmdbcc	fp, {r0, r1, r3, r8, r9, fp, ip, sp}
 880:	3f13490b 	svccc	0x0013490b
 884:	00180219 	andseq	r0, r8, r9, lsl r2
 888:	012e0900 			; <UNDEFINED> instruction: 0x012e0900
 88c:	0e03193f 			; <UNDEFINED> instruction: 0x0e03193f
 890:	0b3b0b3a 	bleq	ec3580 <isr_vectors-0x713ca80>
 894:	19270b39 	stmdbne	r7!, {r0, r3, r4, r5, r8, r9, fp}
 898:	06120111 			; <UNDEFINED> instruction: 0x06120111
 89c:	42961840 	addsmi	r1, r6, #64, 16	; 0x400000
 8a0:	00130119 	andseq	r0, r3, r9, lsl r1
 8a4:	00340a00 	eorseq	r0, r4, r0, lsl #20
 8a8:	0b3a0e03 	bleq	e840bc <isr_vectors-0x717bf44>
 8ac:	0b390b3b 	bleq	e435a0 <isr_vectors-0x71bca60>
 8b0:	18021349 	stmdane	r2, {r0, r3, r6, r8, r9, ip}
 8b4:	0b0b0000 	bleq	2c08bc <isr_vectors-0x7d3f744>
 8b8:	12011101 	andne	r1, r1, #1073741824	; 0x40000000
 8bc:	00130106 	andseq	r0, r3, r6, lsl #2
 8c0:	00340c00 	eorseq	r0, r4, r0, lsl #24
 8c4:	0b3a0803 	bleq	e828d8 <isr_vectors-0x717d728>
 8c8:	0b390b3b 	bleq	e435bc <isr_vectors-0x71bca44>
 8cc:	18021349 	stmdane	r2, {r0, r3, r6, r8, r9, ip}
 8d0:	0b0d0000 	bleq	3408d8 <isr_vectors-0x7cbf728>
 8d4:	12011101 	andne	r1, r1, #1073741824	; 0x40000000
 8d8:	0e000006 	cdpeq	0, 0, cr0, cr0, cr6, {0}
 8dc:	0b0b000f 	bleq	2c0920 <isr_vectors-0x7d3f6e0>
 8e0:	00001349 	andeq	r1, r0, r9, asr #6
 8e4:	3f002e0f 	svccc	0x00002e0f
 8e8:	3a0e0319 	bcc	381554 <isr_vectors-0x7c7eaac>
 8ec:	390b3b0b 	stmdbcc	fp, {r0, r1, r3, r8, r9, fp, ip, sp}
 8f0:	1119270b 	tstne	r9, fp, lsl #14
 8f4:	40061201 	andmi	r1, r6, r1, lsl #4
 8f8:	19429718 	stmdbne	r2, {r3, r4, r8, r9, sl, ip, pc}^
 8fc:	Address 0x000008fc is out of bounds.


Disassembly of section .debug_aranges:

00000000 <.debug_aranges>:
   0:	0000001c 	andeq	r0, r0, ip, lsl r0
   4:	00000002 	andeq	r0, r0, r2
   8:	00040000 	andeq	r0, r4, r0
   c:	00000000 	andeq	r0, r0, r0
  10:	08000188 	stmdaeq	r0, {r3, r7, r8}
  14:	000001aa 	andeq	r0, r0, sl, lsr #3
	...
  20:	0000001c 	andeq	r0, r0, ip, lsl r0
  24:	085d0002 	ldmdaeq	sp, {r1}^
  28:	00040000 	andeq	r0, r4, r0
  2c:	00000000 	andeq	r0, r0, r0
  30:	08000334 	stmdaeq	r0, {r2, r4, r5, r8, r9}
  34:	00000094 	muleq	r0, r4, r0
	...
  40:	0000001c 	andeq	r0, r0, ip, lsl r0
  44:	0a9e0002 	beq	fe780054 <_endOfBss+0xde78001c>
  48:	00040000 	andeq	r0, r4, r0
  4c:	00000000 	andeq	r0, r0, r0
  50:	080003c8 	stmdaeq	r0, {r3, r6, r7, r8, r9}
  54:	000000a0 	andeq	r0, r0, r0, lsr #1
	...
  60:	0000001c 	andeq	r0, r0, ip, lsl r0
  64:	0da20002 	stceq	0, cr0, [r2, #8]!
  68:	00040000 	andeq	r0, r4, r0
  6c:	00000000 	andeq	r0, r0, r0
  70:	08000468 	stmdaeq	r0, {r3, r5, r6, sl}
  74:	00000028 	andeq	r0, r0, r8, lsr #32
	...
  80:	0000001c 	andeq	r0, r0, ip, lsl r0
  84:	0fef0002 	svceq	0x00ef0002
  88:	00040000 	andeq	r0, r4, r0
  8c:	00000000 	andeq	r0, r0, r0
  90:	08000490 	stmdaeq	r0, {r4, r7, sl}
  94:	000002b0 			; <UNDEFINED> instruction: 0x000002b0
	...
  a0:	0000001c 	andeq	r0, r0, ip, lsl r0
  a4:	18dd0002 	ldmne	sp, {r1}^
  a8:	00040000 	andeq	r0, r4, r0
  ac:	00000000 	andeq	r0, r0, r0
  b0:	08000740 	stmdaeq	r0, {r6, r8, r9, sl}
  b4:	00000060 	andeq	r0, r0, r0, rrx
	...
  c0:	00000014 	andeq	r0, r0, r4, lsl r0
  c4:	19e50002 	stmibne	r5!, {r1}^
  c8:	00040000 	andeq	r0, r4, r0
	...
  d8:	0000001c 	andeq	r0, r0, ip, lsl r0
  dc:	20ee0002 	rsccs	r0, lr, r2
  e0:	00040000 	andeq	r0, r4, r0
  e4:	00000000 	andeq	r0, r0, r0
  e8:	080007a0 	stmdaeq	r0, {r5, r7, r8, r9, sl}
  ec:	000000a4 	andeq	r0, r0, r4, lsr #1
	...
  f8:	0000001c 	andeq	r0, r0, ip, lsl r0
  fc:	23100002 	tstcs	r0, #2
 100:	00040000 	andeq	r0, r4, r0
 104:	00000000 	andeq	r0, r0, r0
 108:	08000844 	stmdaeq	r0, {r2, r6, fp}
 10c:	00000090 	muleq	r0, r0, r0
	...

Disassembly of section .debug_line:

00000000 <.debug_line>:
   0:	0000019b 	muleq	r0, fp, r1
   4:	011e0003 	tsteq	lr, r3
   8:	01020000 	mrseq	r0, (UNDEF: 2)
   c:	000d0efb 	strdeq	r0, [sp], -fp
  10:	01010101 	tsteq	r1, r1, lsl #2
  14:	01000000 	mrseq	r0, (UNDEF: 0)
  18:	73010000 	movwvc	r0, #4096	; 0x1000
  1c:	63006372 	movwvs	r6, #882	; 0x372
  20:	72705c3a 	rsbsvc	r5, r0, #14848	; 0x3a00
  24:	6172676f 	cmnvs	r2, pc, ror #14
  28:	6966206d 	stmdbvs	r6!, {r0, r2, r3, r5, r6, sp}^
  2c:	2073656c 	rsbscs	r6, r3, ip, ror #10
  30:	36387828 	ldrtcc	r7, [r8], -r8, lsr #16
  34:	6e675c29 	cdpvs	12, 6, cr5, cr7, cr9, {1}
  38:	72612075 	rsbvc	r2, r1, #117	; 0x75
  3c:	6d65206d 	stclvs	0, cr2, [r5, #-436]!	; 0xfffffe4c
  40:	64646562 	strbtvs	r6, [r4], #-1378	; 0xfffffa9e
  44:	74206465 	strtvc	r6, [r0], #-1125	; 0xfffffb9b
  48:	636c6f6f 	cmnvs	ip, #444	; 0x1bc
  4c:	6e696168 	powvsez	f6, f1, #0.0
  50:	2030315c 	eorscs	r3, r0, ip, asr r1
  54:	31323032 	teqcc	r2, r2, lsr r0
  58:	5c37302e 	ldcpl	0, cr3, [r7], #-184	; 0xffffff48
  5c:	2d6d7261 	sfmcs	f7, 2, [sp, #-388]!	; 0xfffffe7c
  60:	656e6f6e 	strbvs	r6, [lr, #-3950]!	; 0xfffff092
  64:	6261652d 	rsbvs	r6, r1, #188743680	; 0xb400000
  68:	6e695c69 	cdpvs	12, 6, cr5, cr9, cr9, {3}
  6c:	64756c63 	ldrbtvs	r6, [r5], #-3171	; 0xfffff39d
  70:	616d5c65 	cmnvs	sp, r5, ror #24
  74:	6e696863 	cdpvs	8, 6, cr6, cr9, cr3, {3}
  78:	3a630065 	bcc	18c0214 <isr_vectors-0x673fdec>
  7c:	6f72705c 	svcvs	0x0072705c
  80:	6d617267 	sfmvs	f7, 2, [r1, #-412]!	; 0xfffffe64
  84:	6c696620 	stclvs	6, cr6, [r9], #-128	; 0xffffff80
  88:	28207365 	stmdacs	r0!, {r0, r2, r5, r6, r8, r9, ip, sp, lr}
  8c:	29363878 	ldmdbcs	r6!, {r3, r4, r5, r6, fp, ip, sp}
  90:	756e675c 	strbvc	r6, [lr, #-1884]!	; 0xfffff8a4
  94:	6d726120 	ldfvse	f6, [r2, #-128]!	; 0xffffff80
  98:	626d6520 	rsbvs	r6, sp, #32, 10	; 0x8000000
  9c:	65646465 	strbvs	r6, [r4, #-1125]!	; 0xfffffb9b
  a0:	6f742064 	svcvs	0x00742064
  a4:	68636c6f 	stmdavs	r3!, {r0, r1, r2, r3, r5, r6, sl, fp, sp, lr}^
  a8:	5c6e6961 			; <UNDEFINED> instruction: 0x5c6e6961
  ac:	32203031 	eorcc	r3, r0, #49	; 0x31
  b0:	2e313230 	mrccs	2, 1, r3, cr1, cr0, {1}
  b4:	615c3730 	cmpvs	ip, r0, lsr r7
  b8:	6e2d6d72 	mcrvs	13, 1, r6, cr13, cr2, {3}
  bc:	2d656e6f 	stclcs	14, cr6, [r5, #-444]!	; 0xfffffe44
  c0:	69626165 	stmdbvs	r2!, {r0, r2, r5, r6, r8, sp, lr}^
  c4:	636e695c 	cmnvs	lr, #92, 18	; 0x170000
  c8:	6564756c 	strbvs	r7, [r4, #-1388]!	; 0xfffffa94
  cc:	7379735c 	cmnvc	r9, #92, 6	; 0x70000001
  d0:	636e6900 	cmnvs	lr, #0, 18
  d4:	6564756c 	strbvs	r7, [r4, #-1388]!	; 0xfffffa94
  d8:	616d0000 	cmnvs	sp, r0
  dc:	632e6e69 			; <UNDEFINED> instruction: 0x632e6e69
  e0:	00000100 	andeq	r0, r0, r0, lsl #2
  e4:	6665645f 			; <UNDEFINED> instruction: 0x6665645f
  e8:	746c7561 	strbtvc	r7, [ip], #-1377	; 0xfffffa9f
  ec:	7079745f 	rsbsvc	r7, r9, pc, asr r4
  f0:	682e7365 	stmdavs	lr!, {r0, r2, r5, r6, r8, r9, ip, sp, lr}
  f4:	00000200 	andeq	r0, r0, r0, lsl #4
  f8:	6474735f 	ldrbtvs	r7, [r4], #-863	; 0xfffffca1
  fc:	2e746e69 	cdpcs	14, 7, cr6, cr4, cr9, {3}
 100:	00030068 	andeq	r0, r3, r8, rrx
 104:	6d747300 	ldclvs	3, cr7, [r4, #-0]
 108:	346c3233 	strbtcc	r3, [ip], #-563	; 0xfffffdcd
 10c:	65723235 	ldrbvs	r3, [r2, #-565]!	; 0xfffffdcb
 110:	0400682e 	streq	r6, [r0], #-2094	; 0xfffff7d2
 114:	756e0000 	strbvc	r0, [lr, #-0]!
 118:	6f656c63 	svcvs	0x00656c63
 11c:	6e697564 	cdpvs	5, 6, cr7, cr9, cr4, {3}
 120:	00682e6f 	rsbeq	r2, r8, pc, ror #28
 124:	00000004 	andeq	r0, r0, r4
 128:	05000105 	streq	r0, [r0, #-261]	; 0xfffffefb
 12c:	00018802 	andeq	r8, r1, r2, lsl #16
 130:	11051a08 	tstne	r5, r8, lsl #20
 134:	05053d2f 	streq	r3, [r5, #-3375]	; 0xfffff2d1
 138:	3d3d3d3d 	ldccc	13, cr3, [sp, #-244]!	; 0xffffff0c
 13c:	3d3d3d3d 	ldccc	13, cr3, [sp, #-244]!	; 0xffffff0c
 140:	3d3d3d3d 	ldccc	13, cr3, [sp, #-244]!	; 0xffffff0c
 144:	3d3d3d3d 	ldccc	13, cr3, [sp, #-244]!	; 0xffffff0c
 148:	4b4b3d3d 	blmi	12cf644 <isr_vectors-0x6d309bc>
 14c:	054b4b4b 	strbeq	r4, [fp, #-2891]	; 0xfffff4b5
 150:	05054e1e 	streq	r4, [r5, #-3614]	; 0xfffff1e2
 154:	0575672e 	ldrbeq	r6, [r5, #-1838]!	; 0xfffff8d2
 158:	0505791c 	streq	r7, [r5, #-2332]	; 0xfffff6e4
 15c:	761c052e 	ldrvc	r0, [ip], -lr, lsr #10
 160:	052e0505 	streq	r0, [lr, #-1285]!	; 0xfffffafb
 164:	0505771c 	streq	r7, [r5, #-1820]	; 0xfffff8e4
 168:	671c052e 	ldrvs	r0, [ip, -lr, lsr #10]
 16c:	052e0505 	streq	r0, [lr, #-1285]!	; 0xfffffafb
 170:	0505671c 	streq	r6, [r5, #-1820]	; 0xfffff8e4
 174:	671c052e 	ldrvs	r0, [ip, -lr, lsr #10]
 178:	052e0505 	streq	r0, [lr, #-1285]!	; 0xfffffafb
 17c:	05be7501 	ldreq	r7, [lr, #1281]!	; 0x501
 180:	16052f11 			; <UNDEFINED> instruction: 0x16052f11
 184:	ac070559 	cfstr32ge	mvfx0, [r7], {89}	; 0x59
 188:	05301405 	ldreq	r1, [r0, #-1029]!	; 0xfffffbfb
 18c:	05b05a01 	ldreq	r5, [r0, #2561]!	; 0xa01
 190:	052f2f05 	streq	r2, [pc, #-3845]!	; fffff293 <_endOfBss+0xdffff25b>
 194:	04020009 	streq	r0, [r2], #-9
 198:	03023301 	movweq	r3, #8961	; 0x2301
 19c:	54010100 	strpl	r0, [r1], #-256	; 0xffffff00
 1a0:	03000001 	movweq	r0, #1
 1a4:	00011800 	andeq	r1, r1, r0, lsl #16
 1a8:	fb010200 	blx	409b2 <isr_vectors-0x7fbf64e>
 1ac:	01000d0e 	tsteq	r0, lr, lsl #26
 1b0:	00010101 	andeq	r0, r1, r1, lsl #2
 1b4:	00010000 	andeq	r0, r1, r0
 1b8:	72730100 	rsbsvc	r0, r3, #0, 2
 1bc:	3a630063 	bcc	18c0350 <isr_vectors-0x673fcb0>
 1c0:	6f72705c 	svcvs	0x0072705c
 1c4:	6d617267 	sfmvs	f7, 2, [r1, #-412]!	; 0xfffffe64
 1c8:	6c696620 	stclvs	6, cr6, [r9], #-128	; 0xffffff80
 1cc:	28207365 	stmdacs	r0!, {r0, r2, r5, r6, r8, r9, ip, sp, lr}
 1d0:	29363878 	ldmdbcs	r6!, {r3, r4, r5, r6, fp, ip, sp}
 1d4:	756e675c 	strbvc	r6, [lr, #-1884]!	; 0xfffff8a4
 1d8:	6d726120 	ldfvse	f6, [r2, #-128]!	; 0xffffff80
 1dc:	626d6520 	rsbvs	r6, sp, #32, 10	; 0x8000000
 1e0:	65646465 	strbvs	r6, [r4, #-1125]!	; 0xfffffb9b
 1e4:	6f742064 	svcvs	0x00742064
 1e8:	68636c6f 	stmdavs	r3!, {r0, r1, r2, r3, r5, r6, sl, fp, sp, lr}^
 1ec:	5c6e6961 			; <UNDEFINED> instruction: 0x5c6e6961
 1f0:	32203031 	eorcc	r3, r0, #49	; 0x31
 1f4:	2e313230 	mrccs	2, 1, r3, cr1, cr0, {1}
 1f8:	615c3730 	cmpvs	ip, r0, lsr r7
 1fc:	6e2d6d72 	mcrvs	13, 1, r6, cr13, cr2, {3}
 200:	2d656e6f 	stclcs	14, cr6, [r5, #-444]!	; 0xfffffe44
 204:	69626165 	stmdbvs	r2!, {r0, r2, r5, r6, r8, sp, lr}^
 208:	636e695c 	cmnvs	lr, #92, 18	; 0x170000
 20c:	6564756c 	strbvs	r7, [r4, #-1388]!	; 0xfffffa94
 210:	63616d5c 	cmnvs	r1, #92, 26	; 0x1700
 214:	656e6968 	strbvs	r6, [lr, #-2408]!	; 0xfffff698
 218:	5c3a6300 	ldcpl	3, cr6, [sl], #-0
 21c:	676f7270 			; <UNDEFINED> instruction: 0x676f7270
 220:	206d6172 	rsbcs	r6, sp, r2, ror r1
 224:	656c6966 	strbvs	r6, [ip, #-2406]!	; 0xfffff69a
 228:	78282073 	stmdavc	r8!, {r0, r1, r4, r5, r6, sp}
 22c:	5c293638 	stcpl	6, cr3, [r9], #-224	; 0xffffff20
 230:	20756e67 	rsbscs	r6, r5, r7, ror #28
 234:	206d7261 	rsbcs	r7, sp, r1, ror #4
 238:	65626d65 	strbvs	r6, [r2, #-3429]!	; 0xfffff29b
 23c:	64656464 	strbtvs	r6, [r5], #-1124	; 0xfffffb9c
 240:	6f6f7420 	svcvs	0x006f7420
 244:	6168636c 	cmnvs	r8, ip, ror #6
 248:	315c6e69 	cmpcc	ip, r9, ror #28
 24c:	30322030 	eorscc	r2, r2, r0, lsr r0
 250:	302e3132 	eorcc	r3, lr, r2, lsr r1
 254:	72615c37 	rsbvc	r5, r1, #14080	; 0x3700
 258:	6f6e2d6d 	svcvs	0x006e2d6d
 25c:	652d656e 	strvs	r6, [sp, #-1390]!	; 0xfffffa92
 260:	5c696261 	sfmpl	f6, 2, [r9], #-388	; 0xfffffe7c
 264:	6c636e69 	stclvs	14, cr6, [r3], #-420	; 0xfffffe5c
 268:	5c656475 	cfstrdpl	mvd6, [r5], #-468	; 0xfffffe2c
 26c:	00737973 	rsbseq	r7, r3, r3, ror r9
 270:	6c636e69 	stclvs	14, cr6, [r3], #-420	; 0xfffffe5c
 274:	00656475 	rsbeq	r6, r5, r5, ror r4
 278:	616c6600 	cmnvs	ip, r0, lsl #12
 27c:	632e6873 			; <UNDEFINED> instruction: 0x632e6873
 280:	00000100 	andeq	r0, r0, r0, lsl #2
 284:	6665645f 			; <UNDEFINED> instruction: 0x6665645f
 288:	746c7561 	strbtvc	r7, [ip], #-1377	; 0xfffffa9f
 28c:	7079745f 	rsbsvc	r7, r9, pc, asr r4
 290:	682e7365 	stmdavs	lr!, {r0, r2, r5, r6, r8, r9, ip, sp, lr}
 294:	00000200 	andeq	r0, r0, r0, lsl #4
 298:	6474735f 	ldrbtvs	r7, [r4], #-863	; 0xfffffca1
 29c:	2e746e69 	cdpcs	14, 7, cr6, cr4, cr9, {3}
 2a0:	00030068 	andeq	r0, r3, r8, rrx
 2a4:	6d747300 	ldclvs	3, cr7, [r4, #-0]
 2a8:	346c3233 	strbtcc	r3, [ip], #-563	; 0xfffffdcd
 2ac:	65723235 	ldrbvs	r3, [r2, #-565]!	; 0xfffffdcb
 2b0:	0400682e 	streq	r6, [r0], #-2094	; 0xfffff7d2
 2b4:	6f620000 	svcvs	0x00620000
 2b8:	682e6c6f 	stmdavs	lr!, {r0, r1, r2, r3, r5, r6, sl, fp, sp, lr}
 2bc:	00000400 	andeq	r0, r0, r0, lsl #8
 2c0:	00010500 	andeq	r0, r1, r0, lsl #10
 2c4:	03340205 	teqeq	r4, #1342177280	; 0x50000000
 2c8:	05160800 	ldreq	r0, [r6, #-2048]	; 0xfffff800
 2cc:	05054b1e 	streq	r4, [r5, #-2846]	; 0xfffff4e2
 2d0:	6701052e 	strvs	r0, [r1, -lr, lsr #10]
 2d4:	4b1e0569 	blmi	781880 <isr_vectors-0x787e780>
 2d8:	052e0505 	streq	r0, [lr, #-1285]!	; 0xfffffafb
 2dc:	05696701 	strbeq	r6, [r9, #-1793]!	; 0xfffff8ff
 2e0:	05054b1e 	streq	r4, [r5, #-2846]	; 0xfffff4e2
 2e4:	6701052e 	strvs	r0, [r1, -lr, lsr #10]
 2e8:	591e0569 	ldmdbpl	lr, {r0, r3, r5, r6, r8, sl}
 2ec:	052e0505 	streq	r0, [lr, #-1285]!	; 0xfffffafb
 2f0:	07026701 	streq	r6, [r2, -r1, lsl #14]
 2f4:	59010100 	stmdbpl	r1, {r8}
 2f8:	03000001 	movweq	r0, #1
 2fc:	00011700 	andeq	r1, r1, r0, lsl #14
 300:	fb010200 	blx	40b0a <isr_vectors-0x7fbf4f6>
 304:	01000d0e 	tsteq	r0, lr, lsl #26
 308:	00010101 	andeq	r0, r1, r1, lsl #2
 30c:	00010000 	andeq	r0, r1, r0
 310:	72730100 	rsbsvc	r0, r3, #0, 2
 314:	3a630063 	bcc	18c04a8 <isr_vectors-0x673fb58>
 318:	6f72705c 	svcvs	0x0072705c
 31c:	6d617267 	sfmvs	f7, 2, [r1, #-412]!	; 0xfffffe64
 320:	6c696620 	stclvs	6, cr6, [r9], #-128	; 0xffffff80
 324:	28207365 	stmdacs	r0!, {r0, r2, r5, r6, r8, r9, ip, sp, lr}
 328:	29363878 	ldmdbcs	r6!, {r3, r4, r5, r6, fp, ip, sp}
 32c:	756e675c 	strbvc	r6, [lr, #-1884]!	; 0xfffff8a4
 330:	6d726120 	ldfvse	f6, [r2, #-128]!	; 0xffffff80
 334:	626d6520 	rsbvs	r6, sp, #32, 10	; 0x8000000
 338:	65646465 	strbvs	r6, [r4, #-1125]!	; 0xfffffb9b
 33c:	6f742064 	svcvs	0x00742064
 340:	68636c6f 	stmdavs	r3!, {r0, r1, r2, r3, r5, r6, sl, fp, sp, lr}^
 344:	5c6e6961 			; <UNDEFINED> instruction: 0x5c6e6961
 348:	32203031 	eorcc	r3, r0, #49	; 0x31
 34c:	2e313230 	mrccs	2, 1, r3, cr1, cr0, {1}
 350:	615c3730 	cmpvs	ip, r0, lsr r7
 354:	6e2d6d72 	mcrvs	13, 1, r6, cr13, cr2, {3}
 358:	2d656e6f 	stclcs	14, cr6, [r5, #-444]!	; 0xfffffe44
 35c:	69626165 	stmdbvs	r2!, {r0, r2, r5, r6, r8, sp, lr}^
 360:	636e695c 	cmnvs	lr, #92, 18	; 0x170000
 364:	6564756c 	strbvs	r7, [r4, #-1388]!	; 0xfffffa94
 368:	63616d5c 	cmnvs	r1, #92, 26	; 0x1700
 36c:	656e6968 	strbvs	r6, [lr, #-2408]!	; 0xfffff698
 370:	5c3a6300 	ldcpl	3, cr6, [sl], #-0
 374:	676f7270 			; <UNDEFINED> instruction: 0x676f7270
 378:	206d6172 	rsbcs	r6, sp, r2, ror r1
 37c:	656c6966 	strbvs	r6, [ip, #-2406]!	; 0xfffff69a
 380:	78282073 	stmdavc	r8!, {r0, r1, r4, r5, r6, sp}
 384:	5c293638 	stcpl	6, cr3, [r9], #-224	; 0xffffff20
 388:	20756e67 	rsbscs	r6, r5, r7, ror #28
 38c:	206d7261 	rsbcs	r7, sp, r1, ror #4
 390:	65626d65 	strbvs	r6, [r2, #-3429]!	; 0xfffff29b
 394:	64656464 	strbtvs	r6, [r5], #-1124	; 0xfffffb9c
 398:	6f6f7420 	svcvs	0x006f7420
 39c:	6168636c 	cmnvs	r8, ip, ror #6
 3a0:	315c6e69 	cmpcc	ip, r9, ror #28
 3a4:	30322030 	eorscc	r2, r2, r0, lsr r0
 3a8:	302e3132 	eorcc	r3, lr, r2, lsr r1
 3ac:	72615c37 	rsbvc	r5, r1, #14080	; 0x3700
 3b0:	6f6e2d6d 	svcvs	0x006e2d6d
 3b4:	652d656e 	strvs	r6, [sp, #-1390]!	; 0xfffffa92
 3b8:	5c696261 	sfmpl	f6, 2, [r9], #-388	; 0xfffffe7c
 3bc:	6c636e69 	stclvs	14, cr6, [r3], #-420	; 0xfffffe5c
 3c0:	5c656475 	cfstrdpl	mvd6, [r5], #-468	; 0xfffffe2c
 3c4:	00737973 	rsbseq	r7, r3, r3, ror r9
 3c8:	6c636e69 	stclvs	14, cr6, [r3], #-420	; 0xfffffe5c
 3cc:	00656475 	rsbeq	r6, r5, r5, ror r4
 3d0:	69706700 	ldmdbvs	r0!, {r8, r9, sl, sp, lr}^
 3d4:	00632e6f 	rsbeq	r2, r3, pc, ror #28
 3d8:	5f000001 	svcpl	0x00000001
 3dc:	61666564 	cmnvs	r6, r4, ror #10
 3e0:	5f746c75 	svcpl	0x00746c75
 3e4:	65707974 	ldrbvs	r7, [r0, #-2420]!	; 0xfffff68c
 3e8:	00682e73 	rsbeq	r2, r8, r3, ror lr
 3ec:	5f000002 	svcpl	0x00000002
 3f0:	69647473 	stmdbvs	r4!, {r0, r1, r4, r5, r6, sl, ip, sp, lr}^
 3f4:	682e746e 	stmdavs	lr!, {r1, r2, r3, r5, r6, sl, ip, sp, lr}
 3f8:	00000300 	andeq	r0, r0, r0, lsl #6
 3fc:	336d7473 	cmncc	sp, #1929379840	; 0x73000000
 400:	35346c32 	ldrcc	r6, [r4, #-3122]!	; 0xfffff3ce
 404:	2e657232 	mcrcs	2, 3, r7, cr5, cr2, {1}
 408:	00040068 	andeq	r0, r4, r8, rrx
 40c:	6f6f6200 	svcvs	0x006f6200
 410:	00682e6c 	rsbeq	r2, r8, ip, ror #28
 414:	00000004 	andeq	r0, r0, r4
 418:	05000105 	streq	r0, [r0, #-261]	; 0xfffffefb
 41c:	0003c802 	andeq	ip, r3, r2, lsl #16
 420:	05051608 	streq	r1, [r5, #-1544]	; 0xfffff9f8
 424:	2e330583 	cfadd32cs	mvfx0, mvfx3, mvfx3
 428:	052e0505 	streq	r0, [lr, #-1285]!	; 0xfffffafb
 42c:	054d3d01 	strbeq	r3, [sp, #-3329]	; 0xfffff2ff
 430:	36058305 	strcc	r8, [r5], -r5, lsl #6
 434:	2e05054a 	cfsh32cs	mvfx0, mvfx5, #42
 438:	4d3d0105 	ldfmis	f0, [sp, #-20]!	; 0xffffffec
 43c:	05830505 	streq	r0, [r3, #1285]	; 0x505
 440:	05054a3d 	streq	r4, [r5, #-2621]	; 0xfffff5c3
 444:	3d01052e 	cfstr32cc	mvfx0, [r1, #-184]	; 0xffffff48
 448:	7505054d 	strvc	r0, [r5, #-1357]	; 0xfffffab3
 44c:	02830105 	addeq	r0, r3, #1073741825	; 0x40000001
 450:	01010004 	tsteq	r1, r4
 454:	0000012c 	andeq	r0, r0, ip, lsr #2
 458:	010e0003 	tsteq	lr, r3
 45c:	01020000 	mrseq	r0, (UNDEF: 2)
 460:	000d0efb 	strdeq	r0, [sp], -fp
 464:	01010101 	tsteq	r1, r1, lsl #2
 468:	01000000 	mrseq	r0, (UNDEF: 0)
 46c:	73010000 	movwvc	r0, #4096	; 0x1000
 470:	63006372 	movwvs	r6, #882	; 0x372
 474:	72705c3a 	rsbsvc	r5, r0, #14848	; 0x3a00
 478:	6172676f 	cmnvs	r2, pc, ror #14
 47c:	6966206d 	stmdbvs	r6!, {r0, r2, r3, r5, r6, sp}^
 480:	2073656c 	rsbscs	r6, r3, ip, ror #10
 484:	36387828 	ldrtcc	r7, [r8], -r8, lsr #16
 488:	6e675c29 	cdpvs	12, 6, cr5, cr7, cr9, {1}
 48c:	72612075 	rsbvc	r2, r1, #117	; 0x75
 490:	6d65206d 	stclvs	0, cr2, [r5, #-436]!	; 0xfffffe4c
 494:	64646562 	strbtvs	r6, [r4], #-1378	; 0xfffffa9e
 498:	74206465 	strtvc	r6, [r0], #-1125	; 0xfffffb9b
 49c:	636c6f6f 	cmnvs	ip, #444	; 0x1bc
 4a0:	6e696168 	powvsez	f6, f1, #0.0
 4a4:	2030315c 	eorscs	r3, r0, ip, asr r1
 4a8:	31323032 	teqcc	r2, r2, lsr r0
 4ac:	5c37302e 	ldcpl	0, cr3, [r7], #-184	; 0xffffff48
 4b0:	2d6d7261 	sfmcs	f7, 2, [sp, #-388]!	; 0xfffffe7c
 4b4:	656e6f6e 	strbvs	r6, [lr, #-3950]!	; 0xfffff092
 4b8:	6261652d 	rsbvs	r6, r1, #188743680	; 0xb400000
 4bc:	6e695c69 	cdpvs	12, 6, cr5, cr9, cr9, {3}
 4c0:	64756c63 	ldrbtvs	r6, [r5], #-3171	; 0xfffff39d
 4c4:	616d5c65 	cmnvs	sp, r5, ror #24
 4c8:	6e696863 	cdpvs	8, 6, cr6, cr9, cr3, {3}
 4cc:	3a630065 	bcc	18c0668 <isr_vectors-0x673f998>
 4d0:	6f72705c 	svcvs	0x0072705c
 4d4:	6d617267 	sfmvs	f7, 2, [r1, #-412]!	; 0xfffffe64
 4d8:	6c696620 	stclvs	6, cr6, [r9], #-128	; 0xffffff80
 4dc:	28207365 	stmdacs	r0!, {r0, r2, r5, r6, r8, r9, ip, sp, lr}
 4e0:	29363878 	ldmdbcs	r6!, {r3, r4, r5, r6, fp, ip, sp}
 4e4:	756e675c 	strbvc	r6, [lr, #-1884]!	; 0xfffff8a4
 4e8:	6d726120 	ldfvse	f6, [r2, #-128]!	; 0xffffff80
 4ec:	626d6520 	rsbvs	r6, sp, #32, 10	; 0x8000000
 4f0:	65646465 	strbvs	r6, [r4, #-1125]!	; 0xfffffb9b
 4f4:	6f742064 	svcvs	0x00742064
 4f8:	68636c6f 	stmdavs	r3!, {r0, r1, r2, r3, r5, r6, sl, fp, sp, lr}^
 4fc:	5c6e6961 			; <UNDEFINED> instruction: 0x5c6e6961
 500:	32203031 	eorcc	r3, r0, #49	; 0x31
 504:	2e313230 	mrccs	2, 1, r3, cr1, cr0, {1}
 508:	615c3730 	cmpvs	ip, r0, lsr r7
 50c:	6e2d6d72 	mcrvs	13, 1, r6, cr13, cr2, {3}
 510:	2d656e6f 	stclcs	14, cr6, [r5, #-444]!	; 0xfffffe44
 514:	69626165 	stmdbvs	r2!, {r0, r2, r5, r6, r8, sp, lr}^
 518:	636e695c 	cmnvs	lr, #92, 18	; 0x170000
 51c:	6564756c 	strbvs	r7, [r4, #-1388]!	; 0xfffffa94
 520:	7379735c 	cmnvc	r9, #92, 6	; 0x70000001
 524:	636e6900 	cmnvs	lr, #0, 18
 528:	6564756c 	strbvs	r7, [r4, #-1388]!	; 0xfffffa94
 52c:	6f700000 	svcvs	0x00700000
 530:	2e726577 	mrccs	5, 3, r6, cr2, cr7, {3}
 534:	00010063 	andeq	r0, r1, r3, rrx
 538:	65645f00 	strbvs	r5, [r4, #-3840]!	; 0xfffff100
 53c:	6c756166 	ldfvse	f6, [r5], #-408	; 0xfffffe68
 540:	79745f74 	ldmdbvc	r4!, {r2, r4, r5, r6, r8, r9, sl, fp, ip, lr}^
 544:	2e736570 	mrccs	5, 3, r6, cr3, cr0, {3}
 548:	00020068 	andeq	r0, r2, r8, rrx
 54c:	74735f00 	ldrbtvc	r5, [r3], #-3840	; 0xfffff100
 550:	746e6964 	strbtvc	r6, [lr], #-2404	; 0xfffff69c
 554:	0300682e 	movweq	r6, #2094	; 0x82e
 558:	74730000 	ldrbtvc	r0, [r3], #-0
 55c:	6c32336d 	ldcvs	3, cr3, [r2], #-436	; 0xfffffe4c
 560:	72323534 	eorsvc	r3, r2, #52, 10	; 0xd000000
 564:	00682e65 	rsbeq	r2, r8, r5, ror #28
 568:	00000004 	andeq	r0, r0, r4
 56c:	05000105 	streq	r0, [r0, #-261]	; 0xfffffefb
 570:	00046802 	andeq	r6, r4, r2, lsl #16
 574:	1c051608 	stcne	6, cr1, [r5], {8}
 578:	2e050559 	cfrshl32cs	mvfx5, mvfx9, r0
 57c:	02670105 	rsbeq	r0, r7, #1073741825	; 0x40000001
 580:	01010007 	tsteq	r1, r7
 584:	00000254 	andeq	r0, r0, r4, asr r2
 588:	01160003 	tsteq	r6, r3
 58c:	01020000 	mrseq	r0, (UNDEF: 2)
 590:	000d0efb 	strdeq	r0, [sp], -fp
 594:	01010101 	tsteq	r1, r1, lsl #2
 598:	01000000 	mrseq	r0, (UNDEF: 0)
 59c:	73010000 	movwvc	r0, #4096	; 0x1000
 5a0:	69006372 	stmdbvs	r0, {r1, r4, r5, r6, r8, r9, sp, lr}
 5a4:	756c636e 	strbvc	r6, [ip, #-878]!	; 0xfffffc92
 5a8:	63006564 	movwvs	r6, #1380	; 0x564
 5ac:	72705c3a 	rsbsvc	r5, r0, #14848	; 0x3a00
 5b0:	6172676f 	cmnvs	r2, pc, ror #14
 5b4:	6966206d 	stmdbvs	r6!, {r0, r2, r3, r5, r6, sp}^
 5b8:	2073656c 	rsbscs	r6, r3, ip, ror #10
 5bc:	36387828 	ldrtcc	r7, [r8], -r8, lsr #16
 5c0:	6e675c29 	cdpvs	12, 6, cr5, cr7, cr9, {1}
 5c4:	72612075 	rsbvc	r2, r1, #117	; 0x75
 5c8:	6d65206d 	stclvs	0, cr2, [r5, #-436]!	; 0xfffffe4c
 5cc:	64646562 	strbtvs	r6, [r4], #-1378	; 0xfffffa9e
 5d0:	74206465 	strtvc	r6, [r0], #-1125	; 0xfffffb9b
 5d4:	636c6f6f 	cmnvs	ip, #444	; 0x1bc
 5d8:	6e696168 	powvsez	f6, f1, #0.0
 5dc:	2030315c 	eorscs	r3, r0, ip, asr r1
 5e0:	31323032 	teqcc	r2, r2, lsr r0
 5e4:	5c37302e 	ldcpl	0, cr3, [r7], #-184	; 0xffffff48
 5e8:	2d6d7261 	sfmcs	f7, 2, [sp, #-388]!	; 0xfffffe7c
 5ec:	656e6f6e 	strbvs	r6, [lr, #-3950]!	; 0xfffff092
 5f0:	6261652d 	rsbvs	r6, r1, #188743680	; 0xb400000
 5f4:	6e695c69 	cdpvs	12, 6, cr5, cr9, cr9, {3}
 5f8:	64756c63 	ldrbtvs	r6, [r5], #-3171	; 0xfffff39d
 5fc:	616d5c65 	cmnvs	sp, r5, ror #24
 600:	6e696863 	cdpvs	8, 6, cr6, cr9, cr3, {3}
 604:	3a630065 	bcc	18c07a0 <isr_vectors-0x673f860>
 608:	6f72705c 	svcvs	0x0072705c
 60c:	6d617267 	sfmvs	f7, 2, [r1, #-412]!	; 0xfffffe64
 610:	6c696620 	stclvs	6, cr6, [r9], #-128	; 0xffffff80
 614:	28207365 	stmdacs	r0!, {r0, r2, r5, r6, r8, r9, ip, sp, lr}
 618:	29363878 	ldmdbcs	r6!, {r3, r4, r5, r6, fp, ip, sp}
 61c:	756e675c 	strbvc	r6, [lr, #-1884]!	; 0xfffff8a4
 620:	6d726120 	ldfvse	f6, [r2, #-128]!	; 0xffffff80
 624:	626d6520 	rsbvs	r6, sp, #32, 10	; 0x8000000
 628:	65646465 	strbvs	r6, [r4, #-1125]!	; 0xfffffb9b
 62c:	6f742064 	svcvs	0x00742064
 630:	68636c6f 	stmdavs	r3!, {r0, r1, r2, r3, r5, r6, sl, fp, sp, lr}^
 634:	5c6e6961 			; <UNDEFINED> instruction: 0x5c6e6961
 638:	32203031 	eorcc	r3, r0, #49	; 0x31
 63c:	2e313230 	mrccs	2, 1, r3, cr1, cr0, {1}
 640:	615c3730 	cmpvs	ip, r0, lsr r7
 644:	6e2d6d72 	mcrvs	13, 1, r6, cr13, cr2, {3}
 648:	2d656e6f 	stclcs	14, cr6, [r5, #-444]!	; 0xfffffe44
 64c:	69626165 	stmdbvs	r2!, {r0, r2, r5, r6, r8, sp, lr}^
 650:	636e695c 	cmnvs	lr, #92, 18	; 0x170000
 654:	6564756c 	strbvs	r7, [r4, #-1388]!	; 0xfffffa94
 658:	7379735c 	cmnvc	r9, #92, 6	; 0x70000001
 65c:	63720000 	cmnvs	r2, #0
 660:	00632e63 	rsbeq	r2, r3, r3, ror #28
 664:	62000001 	andvs	r0, r0, #1
 668:	2e6c6f6f 	cdpcs	15, 6, cr6, cr12, cr15, {3}
 66c:	00020068 	andeq	r0, r2, r8, rrx
 670:	65645f00 	strbvs	r5, [r4, #-3840]!	; 0xfffff100
 674:	6c756166 	ldfvse	f6, [r5], #-408	; 0xfffffe68
 678:	79745f74 	ldmdbvc	r4!, {r2, r4, r5, r6, r8, r9, sl, fp, ip, lr}^
 67c:	2e736570 	mrccs	5, 3, r6, cr3, cr0, {3}
 680:	00030068 	andeq	r0, r3, r8, rrx
 684:	74735f00 	ldrbtvc	r5, [r3], #-3840	; 0xfffff100
 688:	746e6964 	strbtvc	r6, [lr], #-2404	; 0xfffff69c
 68c:	0400682e 	streq	r6, [r0], #-2094	; 0xfffff7d2
 690:	74730000 	ldrbtvc	r0, [r3], #-0
 694:	6c32336d 	ldcvs	3, cr3, [r2], #-436	; 0xfffffe4c
 698:	72323534 	eorsvc	r3, r2, #52, 10	; 0xd000000
 69c:	00682e65 	rsbeq	r2, r8, r5, ror #28
 6a0:	00000002 	andeq	r0, r0, r2
 6a4:	05000105 	streq	r0, [r0, #-261]	; 0xfffffefb
 6a8:	00049002 	andeq	r9, r4, r2
 6ac:	1c051608 	stcne	6, cr1, [r5], {8}
 6b0:	2e050559 	cfrshl32cs	mvfx5, mvfx9, r0
 6b4:	05750a05 	ldrbeq	r0, [r5, #-2565]!	; 0xfffff5fb
 6b8:	04020011 	streq	r0, [r2], #-17	; 0xffffffef
 6bc:	18052001 	stmdane	r5, {r0, sp}
 6c0:	01040200 	mrseq	r0, R12_usr
 6c4:	000a053c 	andeq	r0, sl, ip, lsr r5
 6c8:	2e010402 	cdpcs	4, 0, cr0, cr1, cr2, {0}
 6cc:	852f0105 	strhi	r0, [pc, #-261]!	; 5cf <isr_vectors-0x7fffa31>
 6d0:	054b1c05 	strbeq	r1, [fp, #-3077]	; 0xfffff3fb
 6d4:	0a052e05 	beq	14bef0 <isr_vectors-0x7eb4110>
 6d8:	00110567 	andseq	r0, r1, r7, ror #10
 6dc:	20010402 	andcs	r0, r1, r2, lsl #8
 6e0:	02001f05 	andeq	r1, r0, #5, 30
 6e4:	053c0104 	ldreq	r0, [ip, #-260]!	; 0xfffffefc
 6e8:	04020016 	streq	r0, [r2], #-22	; 0xffffffea
 6ec:	0a052e01 	beq	14bef8 <isr_vectors-0x7eb4108>
 6f0:	01040200 	mrseq	r0, R12_usr
 6f4:	2f010520 	svccs	0x00010520
 6f8:	4b1c0577 	blmi	701cdc <isr_vectors-0x78fe324>
 6fc:	052e0505 	streq	r0, [lr, #-1285]!	; 0xfffffafb
 700:	1105670a 	tstne	r5, sl, lsl #14
 704:	01040200 	mrseq	r0, R12_usr
 708:	001f0520 	andseq	r0, pc, r0, lsr #10
 70c:	3c010402 	cfstrscc	mvf0, [r1], {2}
 710:	02001605 	andeq	r1, r0, #5242880	; 0x500000
 714:	052e0104 	streq	r0, [lr, #-260]!	; 0xfffffefc
 718:	0402000a 	streq	r0, [r2], #-10
 71c:	01052001 	tsteq	r5, r1
 720:	1c05772f 	stcne	7, cr7, [r5], {47}	; 0x2f
 724:	2e05054b 	cfsh32cs	mvfx0, mvfx5, #43
 728:	05670a05 	strbeq	r0, [r7, #-2565]!	; 0xfffff5fb
 72c:	04020011 	streq	r0, [r2], #-17	; 0xffffffef
 730:	1f052001 	svcne	0x00052001
 734:	01040200 	mrseq	r0, R12_usr
 738:	0016053c 	andseq	r0, r6, ip, lsr r5
 73c:	2e010402 	cdpcs	4, 0, cr0, cr1, cr2, {0}
 740:	02000a05 	andeq	r0, r0, #20480	; 0x5000
 744:	05200104 	streq	r0, [r0, #-260]!	; 0xfffffefc
 748:	05772f01 	ldrbeq	r2, [r7, #-3841]!	; 0xfffff0ff
 74c:	05054b1c 	streq	r4, [r5, #-2844]	; 0xfffff4e4
 750:	670a052e 	strvs	r0, [sl, -lr, lsr #10]
 754:	02001105 	andeq	r1, r0, #1073741825	; 0x40000001
 758:	05200104 	streq	r0, [r0, #-260]!	; 0xfffffefc
 75c:	0402001f 	streq	r0, [r2], #-31	; 0xffffffe1
 760:	16053c01 	strne	r3, [r5], -r1, lsl #24
 764:	01040200 	mrseq	r0, R12_usr
 768:	000a052e 	andeq	r0, sl, lr, lsr #10
 76c:	20010402 	andcs	r0, r1, r2, lsl #8
 770:	772f0105 	strvc	r0, [pc, -r5, lsl #2]!
 774:	05591c05 	ldrbeq	r1, [r9, #-3077]	; 0xfffff3fb
 778:	01052e05 	tsteq	r5, r5, lsl #28
 77c:	1c056975 			; <UNDEFINED> instruction: 0x1c056975
 780:	2e050559 	cfrshl32cs	mvfx5, mvfx9, r0
 784:	69750105 	ldmdbvs	r5!, {r0, r2, r8}^
 788:	05591c05 	ldrbeq	r1, [r9, #-3077]	; 0xfffff3fb
 78c:	01052e05 	tsteq	r5, r5, lsl #28
 790:	1c056975 			; <UNDEFINED> instruction: 0x1c056975
 794:	2e05054b 	cfsh32cs	mvfx0, mvfx5, #43
 798:	77750105 	ldrbvc	r0, [r5, -r5, lsl #2]!
 79c:	05591c05 	ldrbeq	r1, [r9, #-3077]	; 0xfffff3fb
 7a0:	01052e05 	tsteq	r5, r5, lsl #28
 7a4:	1c056975 			; <UNDEFINED> instruction: 0x1c056975
 7a8:	2e050559 	cfrshl32cs	mvfx5, mvfx9, r0
 7ac:	69750105 	ldmdbvs	r5!, {r0, r2, r8}^
 7b0:	05591c05 	ldrbeq	r1, [r9, #-3077]	; 0xfffff3fb
 7b4:	01052e05 	tsteq	r5, r5, lsl #28
 7b8:	1c056975 			; <UNDEFINED> instruction: 0x1c056975
 7bc:	2e050559 	cfrshl32cs	mvfx5, mvfx9, r0
 7c0:	69750105 	ldmdbvs	r5!, {r0, r2, r8}^
 7c4:	054b1c05 	strbeq	r1, [fp, #-3077]	; 0xfffff3fb
 7c8:	01052e05 	tsteq	r5, r5, lsl #28
 7cc:	1c057775 	stcne	7, cr7, [r5], {117}	; 0x75
 7d0:	2e050567 	cfsh32cs	mvfx0, mvfx5, #55
 7d4:	02750105 	rsbseq	r0, r5, #1073741825	; 0x40000001
 7d8:	01010007 	tsteq	r1, r7
 7dc:	0000014f 	andeq	r0, r0, pc, asr #2
 7e0:	00f80003 	rscseq	r0, r8, r3
 7e4:	01020000 	mrseq	r0, (UNDEF: 2)
 7e8:	000d0efb 	strdeq	r0, [sp], -fp
 7ec:	01010101 	tsteq	r1, r1, lsl #2
 7f0:	01000000 	mrseq	r0, (UNDEF: 0)
 7f4:	73010000 	movwvc	r0, #4096	; 0x1000
 7f8:	63006372 	movwvs	r6, #882	; 0x372
 7fc:	72705c3a 	rsbsvc	r5, r0, #14848	; 0x3a00
 800:	6172676f 	cmnvs	r2, pc, ror #14
 804:	6966206d 	stmdbvs	r6!, {r0, r2, r3, r5, r6, sp}^
 808:	2073656c 	rsbscs	r6, r3, ip, ror #10
 80c:	36387828 	ldrtcc	r7, [r8], -r8, lsr #16
 810:	6e675c29 	cdpvs	12, 6, cr5, cr7, cr9, {1}
 814:	72612075 	rsbvc	r2, r1, #117	; 0x75
 818:	6d65206d 	stclvs	0, cr2, [r5, #-436]!	; 0xfffffe4c
 81c:	64646562 	strbtvs	r6, [r4], #-1378	; 0xfffffa9e
 820:	74206465 	strtvc	r6, [r0], #-1125	; 0xfffffb9b
 824:	636c6f6f 	cmnvs	ip, #444	; 0x1bc
 828:	6e696168 	powvsez	f6, f1, #0.0
 82c:	2030315c 	eorscs	r3, r0, ip, asr r1
 830:	31323032 	teqcc	r2, r2, lsr r0
 834:	5c37302e 	ldcpl	0, cr3, [r7], #-184	; 0xffffff48
 838:	2d6d7261 	sfmcs	f7, 2, [sp, #-388]!	; 0xfffffe7c
 83c:	656e6f6e 	strbvs	r6, [lr, #-3950]!	; 0xfffff092
 840:	6261652d 	rsbvs	r6, r1, #188743680	; 0xb400000
 844:	6e695c69 	cdpvs	12, 6, cr5, cr9, cr9, {3}
 848:	64756c63 	ldrbtvs	r6, [r5], #-3171	; 0xfffff39d
 84c:	616d5c65 	cmnvs	sp, r5, ror #24
 850:	6e696863 	cdpvs	8, 6, cr6, cr9, cr3, {3}
 854:	3a630065 	bcc	18c09f0 <isr_vectors-0x673f610>
 858:	6f72705c 	svcvs	0x0072705c
 85c:	6d617267 	sfmvs	f7, 2, [r1, #-412]!	; 0xfffffe64
 860:	6c696620 	stclvs	6, cr6, [r9], #-128	; 0xffffff80
 864:	28207365 	stmdacs	r0!, {r0, r2, r5, r6, r8, r9, ip, sp, lr}
 868:	29363878 	ldmdbcs	r6!, {r3, r4, r5, r6, fp, ip, sp}
 86c:	756e675c 	strbvc	r6, [lr, #-1884]!	; 0xfffff8a4
 870:	6d726120 	ldfvse	f6, [r2, #-128]!	; 0xffffff80
 874:	626d6520 	rsbvs	r6, sp, #32, 10	; 0x8000000
 878:	65646465 	strbvs	r6, [r4, #-1125]!	; 0xfffffb9b
 87c:	6f742064 	svcvs	0x00742064
 880:	68636c6f 	stmdavs	r3!, {r0, r1, r2, r3, r5, r6, sl, fp, sp, lr}^
 884:	5c6e6961 			; <UNDEFINED> instruction: 0x5c6e6961
 888:	32203031 	eorcc	r3, r0, #49	; 0x31
 88c:	2e313230 	mrccs	2, 1, r3, cr1, cr0, {1}
 890:	615c3730 	cmpvs	ip, r0, lsr r7
 894:	6e2d6d72 	mcrvs	13, 1, r6, cr13, cr2, {3}
 898:	2d656e6f 	stclcs	14, cr6, [r5, #-444]!	; 0xfffffe44
 89c:	69626165 	stmdbvs	r2!, {r0, r2, r5, r6, r8, sp, lr}^
 8a0:	636e695c 	cmnvs	lr, #92, 18	; 0x170000
 8a4:	6564756c 	strbvs	r7, [r4, #-1388]!	; 0xfffffa94
 8a8:	7379735c 	cmnvc	r9, #92, 6	; 0x70000001
 8ac:	65720000 	ldrbvs	r0, [r2, #-0]!
 8b0:	74736967 	ldrbtvc	r6, [r3], #-2407	; 0xfffff699
 8b4:	632e7265 			; <UNDEFINED> instruction: 0x632e7265
 8b8:	00000100 	andeq	r0, r0, r0, lsl #2
 8bc:	6665645f 			; <UNDEFINED> instruction: 0x6665645f
 8c0:	746c7561 	strbtvc	r7, [ip], #-1377	; 0xfffffa9f
 8c4:	7079745f 	rsbsvc	r7, r9, pc, asr r4
 8c8:	682e7365 	stmdavs	lr!, {r0, r2, r5, r6, r8, r9, ip, sp, lr}
 8cc:	00000200 	andeq	r0, r0, r0, lsl #4
 8d0:	6474735f 	ldrbtvs	r7, [r4], #-863	; 0xfffffca1
 8d4:	2e746e69 	cdpcs	14, 7, cr6, cr4, cr9, {3}
 8d8:	00030068 	andeq	r0, r3, r8, rrx
 8dc:	01050000 	mrseq	r0, (UNDEF: 5)
 8e0:	40020500 	andmi	r0, r2, r0, lsl #10
 8e4:	15080007 	strne	r0, [r8, #-7]
 8e8:	05750e05 	ldrbeq	r0, [r5, #-3589]!	; 0xfffff1fb
 8ec:	05052f0d 	streq	r2, [r5, #-3853]	; 0xfffff0f3
 8f0:	0023052e 	eoreq	r0, r3, lr, lsr #10
 8f4:	22030402 	andcs	r0, r3, #33554432	; 0x2000000
 8f8:	02001405 	andeq	r1, r0, #83886080	; 0x5000000
 8fc:	052e0304 	streq	r0, [lr, #-772]!	; 0xfffffcfc
 900:	0402001f 	streq	r0, [r2], #-31	; 0xffffffe1
 904:	16053a03 	strne	r3, [r5], -r3, lsl #20
 908:	01040200 	mrseq	r0, R12_usr
 90c:	0005053c 	andeq	r0, r5, ip, lsr r5
 910:	20010402 	andcs	r0, r1, r2, lsl #8
 914:	05401305 	strbeq	r1, [r0, #-773]	; 0xfffffcfb
 918:	16052e23 	strne	r2, [r5], -r3, lsr #28
 91c:	2013054a 	andscs	r0, r3, sl, asr #10
 920:	2e1d053d 	mrccs	5, 0, r0, cr13, cr13, {1}
 924:	054a1305 	strbeq	r1, [sl, #-773]	; 0xfffffcfb
 928:	05023d01 	streq	r3, [r2, #-3329]	; 0xfffff2ff
 92c:	1a010100 	bne	40d34 <isr_vectors-0x7fbf2cc>
 930:	03000001 	movweq	r0, #1
 934:	00011400 	andeq	r1, r1, r0, lsl #8
 938:	fb010200 	blx	41142 <isr_vectors-0x7fbeebe>
 93c:	01000d0e 	tsteq	r0, lr, lsl #26
 940:	00010101 	andeq	r0, r1, r1, lsl #2
 944:	00010000 	andeq	r0, r1, r0
 948:	3a630100 	bcc	18c0d50 <isr_vectors-0x673f2b0>
 94c:	6f72705c 	svcvs	0x0072705c
 950:	6d617267 	sfmvs	f7, 2, [r1, #-412]!	; 0xfffffe64
 954:	6c696620 	stclvs	6, cr6, [r9], #-128	; 0xffffff80
 958:	28207365 	stmdacs	r0!, {r0, r2, r5, r6, r8, r9, ip, sp, lr}
 95c:	29363878 	ldmdbcs	r6!, {r3, r4, r5, r6, fp, ip, sp}
 960:	756e675c 	strbvc	r6, [lr, #-1884]!	; 0xfffff8a4
 964:	6d726120 	ldfvse	f6, [r2, #-128]!	; 0xffffff80
 968:	626d6520 	rsbvs	r6, sp, #32, 10	; 0x8000000
 96c:	65646465 	strbvs	r6, [r4, #-1125]!	; 0xfffffb9b
 970:	6f742064 	svcvs	0x00742064
 974:	68636c6f 	stmdavs	r3!, {r0, r1, r2, r3, r5, r6, sl, fp, sp, lr}^
 978:	5c6e6961 			; <UNDEFINED> instruction: 0x5c6e6961
 97c:	32203031 	eorcc	r3, r0, #49	; 0x31
 980:	2e313230 	mrccs	2, 1, r3, cr1, cr0, {1}
 984:	615c3730 	cmpvs	ip, r0, lsr r7
 988:	6e2d6d72 	mcrvs	13, 1, r6, cr13, cr2, {3}
 98c:	2d656e6f 	stclcs	14, cr6, [r5, #-444]!	; 0xfffffe44
 990:	69626165 	stmdbvs	r2!, {r0, r2, r5, r6, r8, sp, lr}^
 994:	636e695c 	cmnvs	lr, #92, 18	; 0x170000
 998:	6564756c 	strbvs	r7, [r4, #-1388]!	; 0xfffffa94
 99c:	63616d5c 	cmnvs	r1, #92, 26	; 0x1700
 9a0:	656e6968 	strbvs	r6, [lr, #-2408]!	; 0xfffff698
 9a4:	5c3a6300 	ldcpl	3, cr6, [sl], #-0
 9a8:	676f7270 			; <UNDEFINED> instruction: 0x676f7270
 9ac:	206d6172 	rsbcs	r6, sp, r2, ror r1
 9b0:	656c6966 	strbvs	r6, [ip, #-2406]!	; 0xfffff69a
 9b4:	78282073 	stmdavc	r8!, {r0, r1, r4, r5, r6, sp}
 9b8:	5c293638 	stcpl	6, cr3, [r9], #-224	; 0xffffff20
 9bc:	20756e67 	rsbscs	r6, r5, r7, ror #28
 9c0:	206d7261 	rsbcs	r7, sp, r1, ror #4
 9c4:	65626d65 	strbvs	r6, [r2, #-3429]!	; 0xfffff29b
 9c8:	64656464 	strbtvs	r6, [r5], #-1124	; 0xfffffb9c
 9cc:	6f6f7420 	svcvs	0x006f7420
 9d0:	6168636c 	cmnvs	r8, ip, ror #6
 9d4:	315c6e69 	cmpcc	ip, r9, ror #28
 9d8:	30322030 	eorscc	r2, r2, r0, lsr r0
 9dc:	302e3132 	eorcc	r3, lr, r2, lsr r1
 9e0:	72615c37 	rsbvc	r5, r1, #14080	; 0x3700
 9e4:	6f6e2d6d 	svcvs	0x006e2d6d
 9e8:	652d656e 	strvs	r6, [sp, #-1390]!	; 0xfffffa92
 9ec:	5c696261 	sfmpl	f6, 2, [r9], #-388	; 0xfffffe7c
 9f0:	6c636e69 	stclvs	14, cr6, [r3], #-420	; 0xfffffe5c
 9f4:	5c656475 	cfstrdpl	mvd6, [r5], #-468	; 0xfffffe2c
 9f8:	00737973 	rsbseq	r7, r3, r3, ror r9
 9fc:	6c636e69 	stclvs	14, cr6, [r3], #-420	; 0xfffffe5c
 a00:	00656475 	rsbeq	r6, r5, r5, ror r4
 a04:	00637273 	rsbeq	r7, r3, r3, ror r2
 a08:	65645f00 	strbvs	r5, [r4, #-3840]!	; 0xfffff100
 a0c:	6c756166 	ldfvse	f6, [r5], #-408	; 0xfffffe68
 a10:	79745f74 	ldmdbvc	r4!, {r2, r4, r5, r6, r8, r9, sl, fp, ip, lr}^
 a14:	2e736570 	mrccs	5, 3, r6, cr3, cr0, {3}
 a18:	00010068 	andeq	r0, r1, r8, rrx
 a1c:	74735f00 	ldrbtvc	r5, [r3], #-3840	; 0xfffff100
 a20:	746e6964 	strbtvc	r6, [lr], #-2404	; 0xfffff69c
 a24:	0200682e 	andeq	r6, r0, #3014656	; 0x2e0000
 a28:	74730000 	ldrbtvc	r0, [r3], #-0
 a2c:	6c32336d 	ldcvs	3, cr3, [r2], #-436	; 0xfffffe4c
 a30:	72323534 	eorsvc	r3, r2, #52, 10	; 0xd000000
 a34:	00682e65 	rsbeq	r2, r8, r5, ror #28
 a38:	73000003 	movwvc	r0, #3
 a3c:	32336d74 	eorscc	r6, r3, #116, 26	; 0x1d00
 a40:	3235346c 	eorscc	r3, r5, #108, 8	; 0x6c000000
 a44:	632e6572 			; <UNDEFINED> instruction: 0x632e6572
 a48:	00000400 	andeq	r0, r0, r0, lsl #8
 a4c:	00016e00 	andeq	r6, r1, r0, lsl #28
 a50:	2c000300 	stccs	3, cr0, [r0], {-0}
 a54:	02000001 	andeq	r0, r0, #1
 a58:	0d0efb01 	vstreq	d15, [lr, #-4]
 a5c:	01010100 	mrseq	r0, (UNDEF: 17)
 a60:	00000001 	andeq	r0, r0, r1
 a64:	01000001 	tsteq	r0, r1
 a68:	00637273 	rsbeq	r7, r3, r3, ror r2
 a6c:	705c3a63 	subsvc	r3, ip, r3, ror #20
 a70:	72676f72 	rsbvc	r6, r7, #456	; 0x1c8
 a74:	66206d61 	strtvs	r6, [r0], -r1, ror #26
 a78:	73656c69 	cmnvc	r5, #26880	; 0x6900
 a7c:	38782820 	ldmdacc	r8!, {r5, fp, sp}^
 a80:	675c2936 	smmlarvs	ip, r6, r9, r2
 a84:	6120756e 			; <UNDEFINED> instruction: 0x6120756e
 a88:	65206d72 	strvs	r6, [r0, #-3442]!	; 0xfffff28e
 a8c:	6465626d 	strbtvs	r6, [r5], #-621	; 0xfffffd93
 a90:	20646564 	rsbcs	r6, r4, r4, ror #10
 a94:	6c6f6f74 	stclvs	15, cr6, [pc], #-464	; 8cc <isr_vectors-0x7fff734>
 a98:	69616863 	stmdbvs	r1!, {r0, r1, r5, r6, fp, sp, lr}^
 a9c:	30315c6e 	eorscc	r5, r1, lr, ror #24
 aa0:	32303220 	eorscc	r3, r0, #32, 4
 aa4:	37302e31 			; <UNDEFINED> instruction: 0x37302e31
 aa8:	6d72615c 	ldfvse	f6, [r2, #-368]!	; 0xfffffe90
 aac:	6e6f6e2d 	cdpvs	14, 6, cr6, cr15, cr13, {1}
 ab0:	61652d65 	cmnvs	r5, r5, ror #26
 ab4:	695c6962 	ldmdbvs	ip, {r1, r5, r6, r8, fp, sp, lr}^
 ab8:	756c636e 	strbvc	r6, [ip, #-878]!	; 0xfffffc92
 abc:	6d5c6564 	cfldr64vs	mvdx6, [ip, #-400]	; 0xfffffe70
 ac0:	69686361 	stmdbvs	r8!, {r0, r5, r6, r8, r9, sp, lr}^
 ac4:	6300656e 	movwvs	r6, #1390	; 0x56e
 ac8:	72705c3a 	rsbsvc	r5, r0, #14848	; 0x3a00
 acc:	6172676f 	cmnvs	r2, pc, ror #14
 ad0:	6966206d 	stmdbvs	r6!, {r0, r2, r3, r5, r6, sp}^
 ad4:	2073656c 	rsbscs	r6, r3, ip, ror #10
 ad8:	36387828 	ldrtcc	r7, [r8], -r8, lsr #16
 adc:	6e675c29 	cdpvs	12, 6, cr5, cr7, cr9, {1}
 ae0:	72612075 	rsbvc	r2, r1, #117	; 0x75
 ae4:	6d65206d 	stclvs	0, cr2, [r5, #-436]!	; 0xfffffe4c
 ae8:	64646562 	strbtvs	r6, [r4], #-1378	; 0xfffffa9e
 aec:	74206465 	strtvc	r6, [r0], #-1125	; 0xfffffb9b
 af0:	636c6f6f 	cmnvs	ip, #444	; 0x1bc
 af4:	6e696168 	powvsez	f6, f1, #0.0
 af8:	2030315c 	eorscs	r3, r0, ip, asr r1
 afc:	31323032 	teqcc	r2, r2, lsr r0
 b00:	5c37302e 	ldcpl	0, cr3, [r7], #-184	; 0xffffff48
 b04:	2d6d7261 	sfmcs	f7, 2, [sp, #-388]!	; 0xfffffe7c
 b08:	656e6f6e 	strbvs	r6, [lr, #-3950]!	; 0xfffff092
 b0c:	6261652d 	rsbvs	r6, r1, #188743680	; 0xb400000
 b10:	6e695c69 	cdpvs	12, 6, cr5, cr9, cr9, {3}
 b14:	64756c63 	ldrbtvs	r6, [r5], #-3171	; 0xfffff39d
 b18:	79735c65 	ldmdbvc	r3!, {r0, r2, r5, r6, sl, fp, ip, lr}^
 b1c:	6e690073 	mcrvs	0, 3, r0, cr9, cr3, {3}
 b20:	64756c63 	ldrbtvs	r6, [r5], #-3171	; 0xfffff39d
 b24:	75000065 	strvc	r0, [r0, #-101]	; 0xffffff9b
 b28:	6d726573 	cfldr64vs	mvdx6, [r2, #-460]!	; 0xfffffe34
 b2c:	2e6e6961 	vnmulcs.f16	s13, s28, s3	; <UNPREDICTABLE>
 b30:	00010063 	andeq	r0, r1, r3, rrx
 b34:	65645f00 	strbvs	r5, [r4, #-3840]!	; 0xfffff100
 b38:	6c756166 	ldfvse	f6, [r5], #-408	; 0xfffffe68
 b3c:	79745f74 	ldmdbvc	r4!, {r2, r4, r5, r6, r8, r9, sl, fp, ip, lr}^
 b40:	2e736570 	mrccs	5, 3, r6, cr3, cr0, {3}
 b44:	00020068 	andeq	r0, r2, r8, rrx
 b48:	74735f00 	ldrbtvc	r5, [r3], #-3840	; 0xfffff100
 b4c:	746e6964 	strbtvc	r6, [lr], #-2404	; 0xfffff69c
 b50:	0300682e 	movweq	r6, #2094	; 0x82e
 b54:	74730000 	ldrbtvc	r0, [r3], #-0
 b58:	6c32336d 	ldcvs	3, cr3, [r2], #-436	; 0xfffffe4c
 b5c:	72323534 	eorsvc	r3, r2, #52, 10	; 0xd000000
 b60:	00682e65 	rsbeq	r2, r8, r5, ror #28
 b64:	62000004 	andvs	r0, r0, #4
 b68:	2e6c6f6f 	cdpcs	15, 6, cr6, cr12, cr15, {3}
 b6c:	00040068 	andeq	r0, r4, r8, rrx
 b70:	63756e00 	cmnvs	r5, #0, 28
 b74:	646f656c 	strbtvs	r6, [pc], #-1388	; b7c <isr_vectors-0x7fff484>
 b78:	6f6e6975 	svcvs	0x006e6975
 b7c:	0400682e 	streq	r6, [r0], #-2094	; 0xfffff7d2
 b80:	05000000 	streq	r0, [r0, #-0]
 b84:	02050001 	andeq	r0, r5, #1
 b88:	080007a0 	stmdaeq	r0, {r5, r7, r8, r9, sl}
 b8c:	2f0f0516 	svccs	0x000f0516
 b90:	753d0505 	ldrvc	r0, [sp, #-1285]!	; 0xfffffafb
 b94:	75010575 	strvc	r0, [r1, #-1397]	; 0xfffffa8b
 b98:	3115056a 	tstcc	r5, sl, ror #10
 b9c:	05580705 	ldrbeq	r0, [r8, #-1797]	; 0xfffff8fb
 ba0:	16053e10 			; <UNDEFINED> instruction: 0x16053e10
 ba4:	2e0b054b 	cfsh32cs	mvfx0, mvfx11, #43
 ba8:	05300d05 	ldreq	r0, [r0, #-3333]!	; 0xfffff2fb
 bac:	01057517 	tsteq	r5, r7, lsl r5
 bb0:	1c0d0544 	cfstr32ne	mvfx0, [sp], {68}	; 0x44
 bb4:	05751705 	ldrbeq	r1, [r5, #-1797]!	; 0xfffff8fb
 bb8:	0b023f01 	bleq	907c4 <isr_vectors-0x7f6f83c>
 bbc:	7a010100 	bvc	40fc4 <isr_vectors-0x7fbf03c>
 bc0:	03000001 	movweq	r0, #1
 bc4:	0000f300 	andeq	pc, r0, r0, lsl #6
 bc8:	fb010200 	blx	413d2 <isr_vectors-0x7fbec2e>
 bcc:	01000d0e 	tsteq	r0, lr, lsl #26
 bd0:	00010101 	andeq	r0, r1, r1, lsl #2
 bd4:	00010000 	andeq	r0, r1, r0
 bd8:	3a630100 	bcc	18c0fe0 <isr_vectors-0x673f020>
 bdc:	6f72705c 	svcvs	0x0072705c
 be0:	6d617267 	sfmvs	f7, 2, [r1, #-412]!	; 0xfffffe64
 be4:	6c696620 	stclvs	6, cr6, [r9], #-128	; 0xffffff80
 be8:	28207365 	stmdacs	r0!, {r0, r2, r5, r6, r8, r9, ip, sp, lr}
 bec:	29363878 	ldmdbcs	r6!, {r3, r4, r5, r6, fp, ip, sp}
 bf0:	756e675c 	strbvc	r6, [lr, #-1884]!	; 0xfffff8a4
 bf4:	6d726120 	ldfvse	f6, [r2, #-128]!	; 0xffffff80
 bf8:	626d6520 	rsbvs	r6, sp, #32, 10	; 0x8000000
 bfc:	65646465 	strbvs	r6, [r4, #-1125]!	; 0xfffffb9b
 c00:	6f742064 	svcvs	0x00742064
 c04:	68636c6f 	stmdavs	r3!, {r0, r1, r2, r3, r5, r6, sl, fp, sp, lr}^
 c08:	5c6e6961 			; <UNDEFINED> instruction: 0x5c6e6961
 c0c:	32203031 	eorcc	r3, r0, #49	; 0x31
 c10:	2e313230 	mrccs	2, 1, r3, cr1, cr0, {1}
 c14:	615c3730 	cmpvs	ip, r0, lsr r7
 c18:	6e2d6d72 	mcrvs	13, 1, r6, cr13, cr2, {3}
 c1c:	2d656e6f 	stclcs	14, cr6, [r5, #-444]!	; 0xfffffe44
 c20:	69626165 	stmdbvs	r2!, {r0, r2, r5, r6, r8, sp, lr}^
 c24:	636e695c 	cmnvs	lr, #92, 18	; 0x170000
 c28:	6564756c 	strbvs	r7, [r4, #-1388]!	; 0xfffffa94
 c2c:	63616d5c 	cmnvs	r1, #92, 26	; 0x1700
 c30:	656e6968 	strbvs	r6, [lr, #-2408]!	; 0xfffff698
 c34:	5c3a6300 	ldcpl	3, cr6, [sl], #-0
 c38:	676f7270 			; <UNDEFINED> instruction: 0x676f7270
 c3c:	206d6172 	rsbcs	r6, sp, r2, ror r1
 c40:	656c6966 	strbvs	r6, [ip, #-2406]!	; 0xfffff69a
 c44:	78282073 	stmdavc	r8!, {r0, r1, r4, r5, r6, sp}
 c48:	5c293638 	stcpl	6, cr3, [r9], #-224	; 0xffffff20
 c4c:	20756e67 	rsbscs	r6, r5, r7, ror #28
 c50:	206d7261 	rsbcs	r7, sp, r1, ror #4
 c54:	65626d65 	strbvs	r6, [r2, #-3429]!	; 0xfffff29b
 c58:	64656464 	strbtvs	r6, [r5], #-1124	; 0xfffffb9c
 c5c:	6f6f7420 	svcvs	0x006f7420
 c60:	6168636c 	cmnvs	r8, ip, ror #6
 c64:	315c6e69 	cmpcc	ip, r9, ror #28
 c68:	30322030 	eorscc	r2, r2, r0, lsr r0
 c6c:	302e3132 	eorcc	r3, lr, r2, lsr r1
 c70:	72615c37 	rsbvc	r5, r1, #14080	; 0x3700
 c74:	6f6e2d6d 	svcvs	0x006e2d6d
 c78:	652d656e 	strvs	r6, [sp, #-1390]!	; 0xfffffa92
 c7c:	5c696261 	sfmpl	f6, 2, [r9], #-388	; 0xfffffe7c
 c80:	6c636e69 	stclvs	14, cr6, [r3], #-420	; 0xfffffe5c
 c84:	5c656475 	cfstrdpl	mvd6, [r5], #-468	; 0xfffffe2c
 c88:	00737973 	rsbseq	r7, r3, r3, ror r9
 c8c:	61747300 	cmnvs	r4, r0, lsl #6
 c90:	70757472 	rsbsvc	r7, r5, r2, ror r4
 c94:	0000632e 	andeq	r6, r0, lr, lsr #6
 c98:	645f0000 	ldrbvs	r0, [pc], #-0	; ca0 <isr_vectors-0x7fff360>
 c9c:	75616665 	strbvc	r6, [r1, #-1637]!	; 0xfffff99b
 ca0:	745f746c 	ldrbvc	r7, [pc], #-1132	; ca8 <isr_vectors-0x7fff358>
 ca4:	73657079 	cmnvc	r5, #121	; 0x79
 ca8:	0100682e 	tsteq	r0, lr, lsr #16
 cac:	735f0000 	cmpvc	pc, #0
 cb0:	6e696474 	mcrvs	4, 3, r6, cr9, cr4, {3}
 cb4:	00682e74 	rsbeq	r2, r8, r4, ror lr
 cb8:	00000002 	andeq	r0, r0, r2
 cbc:	05000105 	streq	r0, [r0, #-261]	; 0xfffffefb
 cc0:	00084402 	andeq	r4, r8, r2, lsl #8
 cc4:	01ce0308 	biceq	r0, lr, r8, lsl #6
 cc8:	00070501 	andeq	r0, r7, r1, lsl #10
 ccc:	2f010402 	svccs	0x00010402
 cd0:	05250105 	streq	r0, [r5, #-261]!	; 0xfffffefb
 cd4:	0b053e1e 	bleq	150554 <isr_vectors-0x7eafaac>
 cd8:	052f224a 	streq	r2, [pc, #-586]!	; a96 <isr_vectors-0x7fff56a>
 cdc:	02053010 	andeq	r3, r5, #16
 ce0:	0012052e 	andseq	r0, r2, lr, lsr #10
 ce4:	22030402 	andcs	r0, r3, #33554432	; 0x2000000
 ce8:	02000805 	andeq	r0, r0, #327680	; 0x50000
 cec:	053c0304 	ldreq	r0, [ip, #-772]!	; 0xfffffcfc
 cf0:	0402000d 	streq	r0, [r2], #-13
 cf4:	0b053c03 	bleq	14fd08 <isr_vectors-0x7eb02f8>
 cf8:	03040200 	movweq	r0, #16896	; 0x4200
 cfc:	00220520 	eoreq	r0, r2, r0, lsr #10
 d00:	1e030402 	cdpne	4, 0, cr0, cr3, cr2, {0}
 d04:	02000205 	andeq	r0, r0, #1342177280	; 0x50000000
 d08:	053c0104 	ldreq	r0, [ip, #-260]!	; 0xfffffefc
 d0c:	07055114 	smladeq	r5, r4, r1, r5
 d10:	1005224a 	andne	r2, r5, sl, asr #4
 d14:	2e020530 	cfmv64hrcs	mvdx2, r0
 d18:	02000805 	andeq	r0, r0, #327680	; 0x50000
 d1c:	05220304 	streq	r0, [r2, #-772]!	; 0xfffffcfc
 d20:	0402000b 	streq	r0, [r2], #-11
 d24:	22053c03 	andcs	r3, r5, #768	; 0x300
 d28:	03040200 	movweq	r0, #16896	; 0x4200
 d2c:	0002052c 	andeq	r0, r2, ip, lsr #10
 d30:	3c010402 	cfstrscc	mvf0, [r1], {2}
 d34:	2f010550 	svccs	0x00010550
 d38:	01000f02 	tsteq	r0, r2, lsl #30
 d3c:	Address 0x00000d3c is out of bounds.


Disassembly of section .debug_str:

00000000 <.debug_str>:
       0:	54737953 	ldrbtpl	r7, [r3], #-2387	; 0xfffff6ad
       4:	5f6b6369 	svcpl	0x006b6369
       8:	646e6148 	strbtvs	r6, [lr], #-328	; 0xfffffeb8
       c:	0072656c 	rsbseq	r6, r2, ip, ror #10
      10:	44505550 	ldrbmi	r5, [r0], #-1360	; 0xfffffab0
      14:	434c0052 	movtmi	r0, #49234	; 0xc052
      18:	5000524b 	andpl	r5, r0, fp, asr #4
      1c:	5f4e4c4c 	svcpl	0x004e4c4c
      20:	49564944 	ldmdbmi	r6, {r2, r6, r8, fp, lr}^
      24:	5f524544 	svcpl	0x00524544
      28:	50003036 	andpl	r3, r0, r6, lsr r0
      2c:	5f4e4c4c 	svcpl	0x004e4c4c
      30:	49564944 	ldmdbmi	r6, {r2, r6, r8, fp, lr}^
      34:	5f524544 	svcpl	0x00524544
      38:	73003136 	movwvc	r3, #310	; 0x136
      3c:	6d2f6372 	stcvs	3, cr6, [pc, #-456]!	; fffffe7c <_endOfBss+0xdffffe44>
      40:	2e6e6961 	vnmulcs.f16	s13, s28, s3	; <UNPREDICTABLE>
      44:	48410063 	stmdami	r1, {r0, r1, r5, r6}^
      48:	49445f42 	stmdbmi	r4, {r1, r6, r8, r9, sl, fp, ip, lr}^
      4c:	45444956 	strbmi	r4, [r4, #-2390]	; 0xfffff6aa
      50:	59425f44 	stmdbpl	r2, {r2, r6, r8, r9, sl, fp, ip, lr}^
      54:	3832315f 	ldmdacc	r2!, {r0, r1, r2, r3, r4, r6, r8, ip, sp}
      58:	42484100 	submi	r4, r8, #0, 2
      5c:	544f4e5f 	strbpl	r4, [pc], #-3679	; 64 <isr_vectors-0x7ffff9c>
      60:	5649445f 			; <UNDEFINED> instruction: 0x5649445f
      64:	44454449 	strbmi	r4, [r5], #-1097	; 0xfffffbb7
      68:	4c4c5000 	marmi	acc0, r5, ip
      6c:	49445f4e 	stmdbmi	r4, {r1, r2, r3, r6, r8, r9, sl, fp, ip, lr}^
      70:	45444956 	strbmi	r4, [r4, #-2390]	; 0xfffff6aa
      74:	35365f52 	ldrcc	r5, [r6, #-3922]!	; 0xfffff0ae
      78:	4c4c5000 	marmi	acc0, r5, ip
      7c:	49445f4e 	stmdbmi	r4, {r1, r2, r3, r6, r8, r9, sl, fp, ip, lr}^
      80:	45444956 	strbmi	r4, [r4, #-2390]	; 0xfffff6aa
      84:	36365f52 	shsaxcc	r5, r6, r2
      88:	4c4c5000 	marmi	acc0, r5, ip
      8c:	49445f4e 	stmdbmi	r4, {r1, r2, r3, r6, r8, r9, sl, fp, ip, lr}^
      90:	45444956 	strbmi	r4, [r4, #-2390]	; 0xfffff6aa
      94:	37365f52 			; <UNDEFINED> instruction: 0x37365f52
      98:	4c4c5000 	marmi	acc0, r5, ip
      9c:	49445f4e 	stmdbmi	r4, {r1, r2, r3, r6, r8, r9, sl, fp, ip, lr}^
      a0:	45444956 	strbmi	r4, [r4, #-2390]	; 0xfffff6aa
      a4:	38365f52 	ldmdacc	r6!, {r1, r4, r6, r8, r9, sl, fp, ip, lr}
      a8:	4c4c5000 	marmi	acc0, r5, ip
      ac:	49445f4e 	stmdbmi	r4, {r1, r2, r3, r6, r8, r9, sl, fp, ip, lr}^
      b0:	45444956 	strbmi	r4, [r4, #-2390]	; 0xfffff6aa
      b4:	39365f52 	ldmdbcc	r6!, {r1, r4, r6, r8, r9, sl, fp, ip, lr}
      b8:	59544f00 	ldmdbpl	r4, {r8, r9, sl, fp, lr}^
      bc:	00524550 	subseq	r4, r2, r0, asr r5
      c0:	5f434352 	svcpl	0x00434352
      c4:	5346464f 	movtpl	r4, #26191	; 0x664f
      c8:	445f5445 	ldrbmi	r5, [pc], #-1093	; d0 <isr_vectors-0x7ffff30>
      cc:	5f544e4f 	svcpl	0x00544e4f
      d0:	5f455355 	svcpl	0x00455355
      d4:	43520030 	cmpmi	r2, #48	; 0x30
      d8:	464f5f43 	strbmi	r5, [pc], -r3, asr #30
      dc:	54455346 	strbpl	r5, [r5], #-838	; 0xfffffcba
      e0:	4e4f445f 	mcrmi	4, 2, r4, cr15, cr15, {2}
      e4:	53555f54 	cmppl	r5, #84, 30	; 0x150
      e8:	00315f45 	eorseq	r5, r1, r5, asr #30
      ec:	5f434352 	svcpl	0x00434352
      f0:	5346464f 	movtpl	r4, #26191	; 0x664f
      f4:	445f5445 	ldrbmi	r5, [pc], #-1093	; fc <isr_vectors-0x7ffff04>
      f8:	5f544e4f 	svcpl	0x00544e4f
      fc:	5f455355 	svcpl	0x00455355
     100:	43520032 	cmpmi	r2, #50	; 0x32
     104:	464f5f43 	strbmi	r5, [pc], -r3, asr #30
     108:	54455346 	strbpl	r5, [r5], #-838	; 0xfffffcba
     10c:	4e4f445f 	mcrmi	4, 2, r4, cr15, cr15, {2}
     110:	53555f54 	cmppl	r5, #84, 30	; 0x150
     114:	00335f45 	eorseq	r5, r3, r5, asr #30
     118:	5f434352 	svcpl	0x00434352
     11c:	5346464f 	movtpl	r4, #26191	; 0x664f
     120:	445f5445 	ldrbmi	r5, [pc], #-1093	; 128 <isr_vectors-0x7fffed8>
     124:	5f544e4f 	svcpl	0x00544e4f
     128:	5f455355 	svcpl	0x00455355
     12c:	50410034 	subpl	r0, r1, r4, lsr r0
     130:	4d533242 	lfmmi	f3, 2, [r3, #-264]	; 0xfffffef8
     134:	00524e45 	subseq	r4, r2, r5, asr #28
     138:	5f434352 	svcpl	0x00434352
     13c:	5346464f 	movtpl	r4, #26191	; 0x664f
     140:	445f5445 	ldrbmi	r5, [pc], #-1093	; 148 <isr_vectors-0x7fffeb8>
     144:	5f544e4f 	svcpl	0x00544e4f
     148:	5f455355 	svcpl	0x00455355
     14c:	43520036 	cmpmi	r2, #54	; 0x36
     150:	464f5f43 	strbmi	r5, [pc], -r3, asr #30
     154:	54455346 	strbpl	r5, [r5], #-838	; 0xfffffcba
     158:	4e4f445f 	mcrmi	4, 2, r4, cr15, cr15, {2}
     15c:	53555f54 	cmppl	r5, #84, 30	; 0x150
     160:	00375f45 	eorseq	r5, r7, r5, asr #30
     164:	43535953 	cmpmi	r3, #1359872	; 0x14c000
     168:	4b434f4c 	blmi	10d3ea0 <isr_vectors-0x6f2c160>
     16c:	4953485f 	ldmdbmi	r3, {r0, r1, r2, r3, r4, r6, fp, lr}^
     170:	535f3631 	cmppl	pc, #51380224	; 0x3100000
     174:	4352554f 	cmpmi	r2, #331350016	; 0x13c00000
     178:	4c460045 	mcrrmi	0, 4, r0, r6, cr5
     17c:	5f485341 	svcpl	0x00485341
     180:	4554414c 	ldrbmi	r4, [r4, #-332]	; 0xfffffeb4
     184:	5f59434e 	svcpl	0x0059434e
     188:	41575f31 	cmpmi	r7, r1, lsr pc
     18c:	535f5449 	cmppl	pc, #1224736768	; 0x49000000
     190:	45544154 	ldrbmi	r4, [r4, #-340]	; 0xfffffeac
     194:	4f4d0053 	svcmi	0x004d0053
     198:	00524544 	subseq	r4, r2, r4, asr #10
     19c:	676e6f6c 	strbvs	r6, [lr, -ip, ror #30]!
     1a0:	6e6f6c20 	cdpvs	12, 6, cr6, cr15, cr0, {1}
     1a4:	6e752067 	cdpvs	0, 7, cr2, cr5, cr7, {3}
     1a8:	6e676973 			; <UNDEFINED> instruction: 0x6e676973
     1ac:	69206465 	stmdbvs	r0!, {r0, r2, r5, r6, sl, sp, lr}
     1b0:	4300746e 	movwmi	r7, #1134	; 0x46e
     1b4:	52504943 	subspl	r4, r0, #1097728	; 0x10c000
     1b8:	4c500032 	mrrcmi	0, 3, r0, r0, cr2	; <UNPREDICTABLE>
     1bc:	445f4e4c 	ldrbmi	r4, [pc], #-3660	; 1c4 <isr_vectors-0x7fffe3c>
     1c0:	44495649 	strbmi	r5, [r9], #-1609	; 0xfffff9b7
     1c4:	365f5245 	ldrbcc	r5, [pc], -r5, asr #4
     1c8:	4c500032 	mrrcmi	0, 3, r0, r0, cr2	; <UNPREDICTABLE>
     1cc:	445f4e4c 	ldrbmi	r4, [pc], #-3660	; 1d4 <isr_vectors-0x7fffe2c>
     1d0:	44495649 	strbmi	r5, [r9], #-1609	; 0xfffff9b7
     1d4:	365f5245 	ldrbcc	r5, [pc], -r5, asr #4
     1d8:	4c500033 	mrrcmi	0, 3, r0, r0, cr3	; <UNPREDICTABLE>
     1dc:	445f4e4c 	ldrbmi	r4, [pc], #-3660	; 1e4 <isr_vectors-0x7fffe1c>
     1e0:	44495649 	strbmi	r5, [r9], #-1609	; 0xfffff9b7
     1e4:	365f5245 	ldrbcc	r5, [pc], -r5, asr #4
     1e8:	49430034 	stmdbmi	r3, {r2, r4, r5}^
     1ec:	6c005245 	sfmvs	f5, 4, [r0], {69}	; 0x45
     1f0:	20676e6f 	rsbcs	r6, r7, pc, ror #28
     1f4:	676e6f6c 	strbvs	r6, [lr, -ip, ror #30]!
     1f8:	746e6920 	strbtvc	r6, [lr], #-2336	; 0xfffff6e0
     1fc:	696e4900 	stmdbvs	lr!, {r8, fp, lr}^
     200:	536c6174 	cmnpl	ip, #116, 2
     204:	70757465 	rsbsvc	r7, r5, r5, ror #8
     208:	52534200 	subspl	r4, r3, #0, 4
     20c:	48410052 	stmdami	r1, {r1, r4, r6}^
     210:	53523142 	cmppl	r2, #-2147483632	; 0x80000010
     214:	50005254 	andpl	r5, r0, r4, asr r2
     218:	5f4e4c4c 	svcpl	0x004e4c4c
     21c:	49564944 	ldmdbmi	r6, {r2, r6, r8, fp, lr}^
     220:	5f524544 	svcpl	0x00524544
     224:	41003037 	tstmi	r0, r7, lsr r0
     228:	445f4248 	ldrbmi	r4, [pc], #-584	; 230 <isr_vectors-0x7fffdd0>
     22c:	44495649 	strbmi	r5, [r9], #-1609	; 0xfffff9b7
     230:	425f4445 	subsmi	r4, pc, #1157627904	; 0x45000000
     234:	34365f59 	ldrtcc	r5, [r6], #-3929	; 0xfffff0a7
     238:	4c4c5000 	marmi	acc0, r5, ip
     23c:	49445f4e 	stmdbmi	r4, {r1, r2, r3, r6, r8, r9, sl, fp, ip, lr}^
     240:	45444956 	strbmi	r4, [r4, #-2390]	; 0xfffff6aa
     244:	32375f52 	eorscc	r5, r7, #328	; 0x148
     248:	4c4c5000 	marmi	acc0, r5, ip
     24c:	49445f4e 	stmdbmi	r4, {r1, r2, r3, r6, r8, r9, sl, fp, ip, lr}^
     250:	45444956 	strbmi	r4, [r4, #-2390]	; 0xfffff6aa
     254:	33375f52 	teqcc	r7, #328	; 0x148
     258:	42484100 	submi	r4, r8, #0, 2
     25c:	5649445f 			; <UNDEFINED> instruction: 0x5649445f
     260:	44454449 	strbmi	r4, [r5], #-1097	; 0xfffffbb7
     264:	5f59425f 	svcpl	0x0059425f
     268:	00323135 	eorseq	r3, r2, r5, lsr r1
     26c:	4e4c4c50 	mcrmi	12, 2, r4, cr12, cr0, {2}
     270:	5649445f 			; <UNDEFINED> instruction: 0x5649445f
     274:	52454449 	subpl	r4, r5, #1224736768	; 0x49000000
     278:	0035375f 	eorseq	r3, r5, pc, asr r7
     27c:	4e4c4c50 	mcrmi	12, 2, r4, cr12, cr0, {2}
     280:	5649445f 			; <UNDEFINED> instruction: 0x5649445f
     284:	52454449 	subpl	r4, r5, #1224736768	; 0x49000000
     288:	0036375f 	eorseq	r3, r6, pc, asr r7
     28c:	4e4c4c50 	mcrmi	12, 2, r4, cr12, cr0, {2}
     290:	5649445f 			; <UNDEFINED> instruction: 0x5649445f
     294:	52454449 	subpl	r4, r5, #1224736768	; 0x49000000
     298:	0037375f 	eorseq	r3, r7, pc, asr r7
     29c:	5f4c4c50 	svcpl	0x004c4c50
     2a0:	52554f53 	subspl	r4, r5, #332	; 0x14c
     2a4:	4d5f4543 	cfldr64mi	mvdx4, [pc, #-268]	; 1a0 <isr_vectors-0x7fffe60>
     2a8:	50004953 	andpl	r4, r0, r3, asr r9
     2ac:	5f4e4c4c 	svcpl	0x004e4c4c
     2b0:	49564944 	ldmdbmi	r6, {r2, r6, r8, fp, lr}^
     2b4:	5f524544 	svcpl	0x00524544
     2b8:	50003937 	andpl	r3, r0, r7, lsr r9
     2bc:	5f4e4c4c 	svcpl	0x004e4c4c
     2c0:	49564944 	ldmdbmi	r6, {r2, r6, r8, fp, lr}^
     2c4:	5f524544 	svcpl	0x00524544
     2c8:	41003332 	tstmi	r0, r2, lsr r3
     2cc:	52324250 	eorspl	r4, r2, #80, 4
     2d0:	00525453 	subseq	r5, r2, r3, asr r4
     2d4:	31425041 	cmpcc	r2, r1, asr #32
     2d8:	52545352 	subspl	r5, r4, #1207959553	; 0x48000001
     2dc:	50410031 	subpl	r0, r1, r1, lsr r0
     2e0:	53523142 	cmppl	r2, #-2147483632	; 0x80000010
     2e4:	00325254 	eorseq	r5, r2, r4, asr r2
     2e8:	31425041 	cmpcc	r2, r1, asr #32
     2ec:	544f4e5f 	strbpl	r4, [pc], #-3679	; 2f4 <isr_vectors-0x7fffd0c>
     2f0:	5649445f 			; <UNDEFINED> instruction: 0x5649445f
     2f4:	44454449 	strbmi	r4, [r5], #-1097	; 0xfffffbb7
     2f8:	42484100 	submi	r4, r8, #0, 2
     2fc:	5649445f 			; <UNDEFINED> instruction: 0x5649445f
     300:	44454449 	strbmi	r4, [r5], #-1097	; 0xfffffbb7
     304:	5f59425f 	svcpl	0x0059425f
     308:	00363532 	eorseq	r3, r6, r2, lsr r5
     30c:	44414f4c 	strbmi	r4, [r1], #-3916	; 0xfffff0b4
     310:	554e4700 	strbpl	r4, [lr, #-1792]	; 0xfffff900
     314:	31314320 	teqcc	r1, r0, lsr #6
     318:	2e303120 	rsfcssp	f3, f0, f0
     31c:	20312e33 	eorscs	r2, r1, r3, lsr lr
     320:	31323032 	teqcc	r2, r2, lsr r0
     324:	31323630 	teqcc	r2, r0, lsr r6
     328:	65722820 	ldrbvs	r2, [r2, #-2080]!	; 0xfffff7e0
     32c:	7361656c 	cmnvc	r1, #108, 10	; 0x1b000000
     330:	2d202965 			; <UNDEFINED> instruction: 0x2d202965
     334:	7570636d 	ldrbvc	r6, [r0, #-877]!	; 0xfffffc93
     338:	726f633d 	rsbvc	r6, pc, #-201326592	; 0xf4000000
     33c:	2d786574 	cfldr64cs	mvdx6, [r8, #-464]!	; 0xfffffe30
     340:	2d20346d 	cfstrscs	mvf3, [r0, #-436]!	; 0xfffffe4c
     344:	7568746d 	strbvc	r7, [r8, #-1133]!	; 0xfffffb93
     348:	2d20626d 	sfmcs	f6, 4, [r0, #-436]!	; 0xfffffe4c
     34c:	6f6c666d 	svcvs	0x006c666d
     350:	612d7461 			; <UNDEFINED> instruction: 0x612d7461
     354:	733d6962 	teqvc	sp, #1605632	; 0x188000
     358:	2074666f 	rsbscs	r6, r4, pc, ror #12
     35c:	72616d2d 	rsbvc	r6, r1, #2880	; 0xb40
     360:	613d6863 	teqvs	sp, r3, ror #16
     364:	37766d72 			; <UNDEFINED> instruction: 0x37766d72
     368:	206d2d65 	rsbcs	r2, sp, r5, ror #26
     36c:	2d20672d 	stccs	7, cr6, [r0, #-180]!	; 0xffffff4c
     370:	2d20304f 	stccs	0, cr3, [r0, #-316]!	; 0xfffffec4
     374:	3d647473 	cfstrdcc	mvd7, [r4, #-460]!	; 0xfffffe34
     378:	31756e67 	cmncc	r5, r7, ror #28
     37c:	4c500031 	mrrcmi	0, 3, r0, r0, cr1	; <UNPREDICTABLE>
     380:	4f535f4c 	svcmi	0x00535f4c
     384:	45435255 	strbmi	r5, [r3, #-597]	; 0xfffffdab
     388:	4553485f 	ldrbmi	r4, [r3, #-2143]	; 0xfffff7a1
     38c:	46494300 	strbmi	r4, [r9], -r0, lsl #6
     390:	48410052 	stmdami	r1, {r1, r4, r6}^
     394:	53523242 	cmppl	r2, #536870916	; 0x20000004
     398:	5f005254 	svcpl	0x00005254
     39c:	6e69755f 	mcrvs	5, 3, r7, cr9, cr15, {2}
     3a0:	5f323374 	svcpl	0x00323374
     3a4:	48410074 	stmdami	r1, {r2, r4, r5, r6}^
     3a8:	4d533242 	lfmmi	f3, 2, [r3, #-264]	; 0xfffffef8
     3ac:	00524e45 	subseq	r4, r2, r5, asr #28
     3b0:	4e4c4c50 	mcrmi	12, 2, r4, cr12, cr0, {2}
     3b4:	5649445f 			; <UNDEFINED> instruction: 0x5649445f
     3b8:	52454449 	subpl	r4, r5, #1224736768	; 0x49000000
     3bc:	0030385f 	eorseq	r3, r0, pc, asr r8
     3c0:	4e4c4c50 	mcrmi	12, 2, r4, cr12, cr0, {2}
     3c4:	5649445f 			; <UNDEFINED> instruction: 0x5649445f
     3c8:	52454449 	subpl	r4, r5, #1224736768	; 0x49000000
     3cc:	0031385f 	eorseq	r3, r1, pc, asr r8
     3d0:	4e4c4c50 	mcrmi	12, 2, r4, cr12, cr0, {2}
     3d4:	5649445f 			; <UNDEFINED> instruction: 0x5649445f
     3d8:	52454449 	subpl	r4, r5, #1224736768	; 0x49000000
     3dc:	0032385f 	eorseq	r3, r2, pc, asr r8
     3e0:	4e4c4c50 	mcrmi	12, 2, r4, cr12, cr0, {2}
     3e4:	5649445f 			; <UNDEFINED> instruction: 0x5649445f
     3e8:	52454449 	subpl	r4, r5, #1224736768	; 0x49000000
     3ec:	0033385f 	eorseq	r3, r3, pc, asr r8
     3f0:	4e4c4c50 	mcrmi	12, 2, r4, cr12, cr0, {2}
     3f4:	5649445f 			; <UNDEFINED> instruction: 0x5649445f
     3f8:	52454449 	subpl	r4, r5, #1224736768	; 0x49000000
     3fc:	0034385f 	eorseq	r3, r4, pc, asr r8
     400:	4e4c4c50 	mcrmi	12, 2, r4, cr12, cr0, {2}
     404:	5649445f 			; <UNDEFINED> instruction: 0x5649445f
     408:	52454449 	subpl	r4, r5, #1224736768	; 0x49000000
     40c:	0035385f 	eorseq	r3, r5, pc, asr r8
     410:	4e4c4c50 	mcrmi	12, 2, r4, cr12, cr0, {2}
     414:	5649445f 			; <UNDEFINED> instruction: 0x5649445f
     418:	52454449 	subpl	r4, r5, #1224736768	; 0x49000000
     41c:	0036385f 	eorseq	r3, r6, pc, asr r8
     420:	4e4c4c50 	mcrmi	12, 2, r4, cr12, cr0, {2}
     424:	5649445f 			; <UNDEFINED> instruction: 0x5649445f
     428:	52454449 	subpl	r4, r5, #1224736768	; 0x49000000
     42c:	0031335f 	eorseq	r3, r1, pc, asr r3
     430:	53414c46 	movtpl	r4, #7238	; 0x1c46
     434:	414c5f48 	cmpmi	ip, r8, asr #30
     438:	434e4554 	movtmi	r4, #58708	; 0xe554
     43c:	5f325f59 	svcpl	0x00325f59
     440:	54494157 	strbpl	r4, [r9], #-343	; 0xfffffea9
     444:	4154535f 	cmpmi	r4, pc, asr r3
     448:	00534554 	subseq	r4, r3, r4, asr r5
     44c:	5f434352 	svcpl	0x00434352
     450:	5346464f 	movtpl	r4, #26191	; 0x664f
     454:	445f5445 	ldrbmi	r5, [pc], #-1093	; 45c <isr_vectors-0x7fffba4>
     458:	5f544e4f 	svcpl	0x00544e4f
     45c:	5f455355 	svcpl	0x00455355
     460:	4c500038 	mrrcmi	0, 3, r0, r0, cr8	; <UNPREDICTABLE>
     464:	445f4e4c 	ldrbmi	r4, [pc], #-3660	; 46c <isr_vectors-0x7fffb94>
     468:	44495649 	strbmi	r5, [r9], #-1609	; 0xfffff9b7
     46c:	335f5245 	cmpcc	pc, #1342177284	; 0x50000004
     470:	4c500035 	mrrcmi	0, 3, r0, r0, cr5	; <UNPREDICTABLE>
     474:	445f4e4c 	ldrbmi	r4, [pc], #-3660	; 47c <isr_vectors-0x7fffb84>
     478:	44495649 	strbmi	r5, [r9], #-1609	; 0xfffff9b7
     47c:	335f5245 	cmpcc	pc, #1342177284	; 0x50000004
     480:	50470037 	subpl	r0, r7, r7, lsr r0
     484:	4d5f4f49 	ldclmi	15, cr4, [pc, #-292]	; 368 <isr_vectors-0x7fffc98>
     488:	55494445 	strbpl	r4, [r9, #-1093]	; 0xfffffbbb
     48c:	50535f4d 	subspl	r5, r3, sp, asr #30
     490:	00444545 	subeq	r4, r4, r5, asr #10
     494:	4e4c4c50 	mcrmi	12, 2, r4, cr12, cr0, {2}
     498:	5649445f 			; <UNDEFINED> instruction: 0x5649445f
     49c:	52454449 	subpl	r4, r5, #1224736768	; 0x49000000
     4a0:	0030315f 	eorseq	r3, r0, pc, asr r1
     4a4:	4e4c4c50 	mcrmi	12, 2, r4, cr12, cr0, {2}
     4a8:	5649445f 			; <UNDEFINED> instruction: 0x5649445f
     4ac:	52454449 	subpl	r4, r5, #1224736768	; 0x49000000
     4b0:	0031315f 	eorseq	r3, r1, pc, asr r1
     4b4:	4e4c4c50 	mcrmi	12, 2, r4, cr12, cr0, {2}
     4b8:	5649445f 			; <UNDEFINED> instruction: 0x5649445f
     4bc:	52454449 	subpl	r4, r5, #1224736768	; 0x49000000
     4c0:	0032315f 	eorseq	r3, r2, pc, asr r1
     4c4:	4e4c4c50 	mcrmi	12, 2, r4, cr12, cr0, {2}
     4c8:	5649445f 			; <UNDEFINED> instruction: 0x5649445f
     4cc:	52454449 	subpl	r4, r5, #1224736768	; 0x49000000
     4d0:	0033315f 	eorseq	r3, r3, pc, asr r1
     4d4:	4e4c4c50 	mcrmi	12, 2, r4, cr12, cr0, {2}
     4d8:	5649445f 			; <UNDEFINED> instruction: 0x5649445f
     4dc:	52454449 	subpl	r4, r5, #1224736768	; 0x49000000
     4e0:	0034315f 	eorseq	r3, r4, pc, asr r1
     4e4:	4e4c4c50 	mcrmi	12, 2, r4, cr12, cr0, {2}
     4e8:	5649445f 			; <UNDEFINED> instruction: 0x5649445f
     4ec:	52454449 	subpl	r4, r5, #1224736768	; 0x49000000
     4f0:	0035315f 	eorseq	r3, r5, pc, asr r1
     4f4:	4e4c4c50 	mcrmi	12, 2, r4, cr12, cr0, {2}
     4f8:	5649445f 			; <UNDEFINED> instruction: 0x5649445f
     4fc:	52454449 	subpl	r4, r5, #1224736768	; 0x49000000
     500:	0036315f 	eorseq	r3, r6, pc, asr r1
     504:	4e4c4c50 	mcrmi	12, 2, r4, cr12, cr0, {2}
     508:	5649445f 			; <UNDEFINED> instruction: 0x5649445f
     50c:	52454449 	subpl	r4, r5, #1224736768	; 0x49000000
     510:	0037315f 	eorseq	r3, r7, pc, asr r1
     514:	4e4c4c50 	mcrmi	12, 2, r4, cr12, cr0, {2}
     518:	5649445f 			; <UNDEFINED> instruction: 0x5649445f
     51c:	52454449 	subpl	r4, r5, #1224736768	; 0x49000000
     520:	0038315f 	eorseq	r3, r8, pc, asr r1
     524:	4e4c4c50 	mcrmi	12, 2, r4, cr12, cr0, {2}
     528:	5649445f 			; <UNDEFINED> instruction: 0x5649445f
     52c:	52454449 	subpl	r4, r5, #1224736768	; 0x49000000
     530:	0039315f 	eorseq	r3, r9, pc, asr r1
     534:	4f495047 	svcmi	0x00495047
     538:	544c415f 	strbpl	r4, [ip], #-351	; 0xfffffea1
     53c:	414e5245 	cmpmi	lr, r5, asr #4
     540:	465f4554 			; <UNDEFINED> instruction: 0x465f4554
     544:	54434e55 	strbpl	r4, [r3], #-3669	; 0xfffff1ab
     548:	5f4e4f49 	svcpl	0x004e4f49
     54c:	45444f4d 	strbmi	r4, [r4, #-3917]	; 0xfffff0b3
     550:	6f687300 	svcvs	0x00687300
     554:	75207472 	strvc	r7, [r0, #-1138]!	; 0xfffffb8e
     558:	6769736e 	strbvs	r7, [r9, -lr, ror #6]!
     55c:	2064656e 	rsbcs	r6, r4, lr, ror #10
     560:	00746e69 	rsbseq	r6, r4, r9, ror #28
     564:	4e4c4c50 	mcrmi	12, 2, r4, cr12, cr0, {2}
     568:	5649445f 			; <UNDEFINED> instruction: 0x5649445f
     56c:	52454449 	subpl	r4, r5, #1224736768	; 0x49000000
     570:	0034375f 	eorseq	r3, r4, pc, asr r7
     574:	43535953 	cmpmi	r3, #1359872	; 0x14c000
     578:	4b434f4c 	blmi	10d42b0 <isr_vectors-0x6f2bd50>
     57c:	49534d5f 	ldmdbmi	r3, {r0, r1, r2, r3, r4, r6, r8, sl, fp, lr}^
     580:	554f535f 	strbpl	r5, [pc, #-863]	; 229 <isr_vectors-0x7fffdd7>
     584:	00454352 	subeq	r4, r5, r2, asr r3
     588:	33424841 	movtcc	r4, #10305	; 0x2841
     58c:	4e454d53 	mcrmi	13, 2, r4, cr5, cr3, {2}
     590:	4c500052 	mrrcmi	0, 5, r0, r0, cr2	; <UNPREDICTABLE>
     594:	445f4e4c 	ldrbmi	r4, [pc], #-3660	; 59c <isr_vectors-0x7fffa64>
     598:	44495649 	strbmi	r5, [r9], #-1609	; 0xfffff9b7
     59c:	375f5245 	ldrbcc	r5, [pc, -r5, asr #4]
     5a0:	4c500038 	mrrcmi	0, 3, r0, r0, cr8	; <UNPREDICTABLE>
     5a4:	445f4e4c 	ldrbmi	r4, [pc], #-3660	; 5ac <isr_vectors-0x7fffa54>
     5a8:	44495649 	strbmi	r5, [r9], #-1609	; 0xfffff9b7
     5ac:	385f5245 	ldmdacc	pc, {r0, r2, r6, r9, ip, lr}^	; <UNPREDICTABLE>
     5b0:	4c4c5000 	marmi	acc0, r5, ip
     5b4:	49445f4e 	stmdbmi	r4, {r1, r2, r3, r6, r8, r9, sl, fp, ip, lr}^
     5b8:	45444956 	strbmi	r4, [r4, #-2390]	; 0xfffff6aa
     5bc:	00395f52 	eorseq	r5, r9, r2, asr pc
     5c0:	32425041 	subcc	r5, r2, #65	; 0x41
     5c4:	5649445f 			; <UNDEFINED> instruction: 0x5649445f
     5c8:	44454449 	strbmi	r4, [r5], #-1097	; 0xfffffbb7
     5cc:	5f59425f 	svcpl	0x0059425f
     5d0:	50410032 	subpl	r0, r1, r2, lsr r0
     5d4:	445f3242 	ldrbmi	r3, [pc], #-578	; 5dc <isr_vectors-0x7fffa24>
     5d8:	44495649 	strbmi	r5, [r9], #-1609	; 0xfffff9b7
     5dc:	425f4445 	subsmi	r4, pc, #1157627904	; 0x45000000
     5e0:	00345f59 	eorseq	r5, r4, r9, asr pc
     5e4:	43535953 	cmpmi	r3, #1359872	; 0x14c000
     5e8:	4b434f4c 	blmi	10d4320 <isr_vectors-0x6f2bce0>
     5ec:	4c4c505f 	mcrrmi	0, 5, r5, ip, cr15
     5f0:	554f535f 	strbpl	r5, [pc, #-863]	; 299 <isr_vectors-0x7fffd67>
     5f4:	00454352 	subeq	r4, r5, r2, asr r3
     5f8:	32425041 	subcc	r5, r2, #65	; 0x41
     5fc:	5649445f 			; <UNDEFINED> instruction: 0x5649445f
     600:	44454449 	strbmi	r4, [r5], #-1097	; 0xfffffbb7
     604:	5f59425f 	svcpl	0x0059425f
     608:	50410038 	subpl	r0, r1, r8, lsr r0
     60c:	4e5f3242 	cdpmi	2, 5, cr3, cr15, cr2, {2}
     610:	445f544f 	ldrbmi	r5, [pc], #-1103	; 618 <isr_vectors-0x7fff9e8>
     614:	44495649 	strbmi	r5, [r9], #-1609	; 0xfffff9b7
     618:	50004445 	andpl	r4, r0, r5, asr #8
     61c:	5f4e4c4c 	svcpl	0x004e4c4c
     620:	49564944 	ldmdbmi	r6, {r2, r6, r8, fp, lr}^
     624:	5f524544 	svcpl	0x00524544
     628:	50003032 	andpl	r3, r0, r2, lsr r0
     62c:	5f4e4c4c 	svcpl	0x004e4c4c
     630:	49564944 	ldmdbmi	r6, {r2, r6, r8, fp, lr}^
     634:	5f524544 	svcpl	0x00524544
     638:	50003132 	andpl	r3, r0, r2, lsr r1
     63c:	5f4e4c4c 	svcpl	0x004e4c4c
     640:	49564944 	ldmdbmi	r6, {r2, r6, r8, fp, lr}^
     644:	5f524544 	svcpl	0x00524544
     648:	41003232 	tstmi	r0, r2, lsr r2
     64c:	445f4248 	ldrbmi	r4, [pc], #-584	; 654 <isr_vectors-0x7fff9ac>
     650:	44495649 	strbmi	r5, [r9], #-1609	; 0xfffff9b7
     654:	425f4445 	subsmi	r4, pc, #1157627904	; 0x45000000
     658:	36315f59 	shsaxcc	r5, r1, r9
     65c:	4c4c5000 	marmi	acc0, r5, ip
     660:	49445f4e 	stmdbmi	r4, {r1, r2, r3, r6, r8, r9, sl, fp, ip, lr}^
     664:	45444956 	strbmi	r4, [r4, #-2390]	; 0xfffff6aa
     668:	34325f52 	ldrtcc	r5, [r2], #-3922	; 0xfffff0ae
     66c:	4c4c5000 	marmi	acc0, r5, ip
     670:	49445f4e 	stmdbmi	r4, {r1, r2, r3, r6, r8, r9, sl, fp, ip, lr}^
     674:	45444956 	strbmi	r4, [r4, #-2390]	; 0xfffff6aa
     678:	35325f52 	ldrcc	r5, [r2, #-3922]!	; 0xfffff0ae
     67c:	4c4c5000 	marmi	acc0, r5, ip
     680:	49445f4e 	stmdbmi	r4, {r1, r2, r3, r6, r8, r9, sl, fp, ip, lr}^
     684:	45444956 	strbmi	r4, [r4, #-2390]	; 0xfffff6aa
     688:	36325f52 	shsaxcc	r5, r2, r2
     68c:	4c4c5000 	marmi	acc0, r5, ip
     690:	49445f4e 	stmdbmi	r4, {r1, r2, r3, r6, r8, r9, sl, fp, ip, lr}^
     694:	45444956 	strbmi	r4, [r4, #-2390]	; 0xfffff6aa
     698:	37325f52 			; <UNDEFINED> instruction: 0x37325f52
     69c:	4c4c5000 	marmi	acc0, r5, ip
     6a0:	49445f4e 	stmdbmi	r4, {r1, r2, r3, r6, r8, r9, sl, fp, ip, lr}^
     6a4:	45444956 	strbmi	r4, [r4, #-2390]	; 0xfffff6aa
     6a8:	38325f52 	ldmdacc	r2!, {r1, r4, r6, r8, r9, sl, fp, ip, lr}
     6ac:	4c4c5000 	marmi	acc0, r5, ip
     6b0:	49445f4e 	stmdbmi	r4, {r1, r2, r3, r6, r8, r9, sl, fp, ip, lr}^
     6b4:	45444956 	strbmi	r4, [r4, #-2390]	; 0xfffff6aa
     6b8:	39325f52 	ldmdbcc	r2!, {r1, r4, r6, r8, r9, sl, fp, ip, lr}
     6bc:	49504700 	ldmdbmi	r0, {r8, r9, sl, lr}^
     6c0:	5f415f4f 	svcpl	0x00415f4f
     6c4:	42414e45 	submi	r4, r1, #1104	; 0x450
     6c8:	505f454c 	subspl	r4, pc, ip, asr #10
     6cc:	0054524f 	subseq	r5, r4, pc, asr #4
     6d0:	524c4c50 	subpl	r4, ip, #80, 24	; 0x5000
     6d4:	5649445f 			; <UNDEFINED> instruction: 0x5649445f
     6d8:	52454449 	subpl	r4, r5, #1224736768	; 0x49000000
     6dc:	5000325f 	andpl	r3, r0, pc, asr r2
     6e0:	5f524c4c 	svcpl	0x00524c4c
     6e4:	49564944 	ldmdbmi	r6, {r2, r6, r8, fp, lr}^
     6e8:	5f524544 	svcpl	0x00524544
     6ec:	4c500034 	mrrcmi	0, 3, r0, r0, cr4	; <UNPREDICTABLE>
     6f0:	445f524c 	ldrbmi	r5, [pc], #-588	; 6f8 <isr_vectors-0x7fff908>
     6f4:	44495649 	strbmi	r5, [r9], #-1609	; 0xfffff9b7
     6f8:	365f5245 	ldrbcc	r5, [pc], -r5, asr #4
     6fc:	4c4c5000 	marmi	acc0, r5, ip
     700:	49445f52 	stmdbmi	r4, {r1, r4, r6, r8, r9, sl, fp, ip, lr}^
     704:	45444956 	strbmi	r4, [r4, #-2390]	; 0xfffff6aa
     708:	00385f52 	eorseq	r5, r8, r2, asr pc
     70c:	4f495047 	svcmi	0x00495047
     710:	574f4c5f 	smlsldpl	r4, pc, pc, ip	; <UNPREDICTABLE>
     714:	4550535f 	ldrbmi	r5, [r0, #-863]	; 0xfffffca1
     718:	41004445 	tstmi	r0, r5, asr #8
     71c:	5f324250 	svcpl	0x00324250
     720:	49564944 	ldmdbmi	r6, {r2, r6, r8, fp, lr}^
     724:	5f444544 	svcpl	0x00444544
     728:	315f5942 	cmpcc	pc, r2, asr #18
     72c:	50470036 	subpl	r0, r7, r6, lsr r0
     730:	425f4f49 	subsmi	r4, pc, #292	; 0x124
     734:	414e455f 	cmpmi	lr, pc, asr r5
     738:	5f454c42 	svcpl	0x00454c42
     73c:	54524f50 	ldrbpl	r4, [r2], #-3920	; 0xfffff0b0
     740:	50534f00 	subspl	r4, r3, r0, lsl #30
     744:	52444545 	subpl	r4, r4, #289406976	; 0x11400000
     748:	4c4c5000 	marmi	acc0, r5, ip
     74c:	52474643 	subpl	r4, r7, #70254592	; 0x4300000
     750:	73797300 	cmnvc	r9, #0, 6
     754:	6b636974 	blvs	18dad2c <isr_vectors-0x67252d4>
     758:	7274735f 	rsbsvc	r7, r4, #2080374785	; 0x7c000001
     75c:	5f746375 	svcpl	0x00746375
     760:	50470074 	subpl	r0, r7, r4, ror r0
     764:	565f4f49 	ldrbpl	r4, [pc], -r9, asr #30
     768:	5f595245 	svcpl	0x00595245
     76c:	48474948 	stmdami	r7, {r3, r6, r8, fp, lr}^
     770:	4550535f 	ldrbmi	r5, [r0, #-863]	; 0xfffffca1
     774:	41004445 	tstmi	r0, r5, asr #8
     778:	45314250 	ldrmi	r4, [r1, #-592]!	; 0xfffffdb0
     77c:	0031524e 	eorseq	r5, r1, lr, asr #4
     780:	31425041 	cmpcc	r2, r1, asr #32
     784:	32524e45 	subscc	r4, r2, #1104	; 0x450
     788:	49504700 	ldmdbmi	r0, {r8, r9, sl, lr}^
     78c:	5f445f4f 	svcpl	0x00445f4f
     790:	42414e45 	submi	r4, r1, #1104	; 0x450
     794:	505f454c 	subspl	r4, pc, ip, asr #10
     798:	0054524f 	subseq	r5, r4, pc, asr #4
     79c:	4f495047 	svcmi	0x00495047
     7a0:	46410041 	strbmi	r0, [r1], -r1, asr #32
     7a4:	53004852 	movwpl	r4, #2130	; 0x852
     7a8:	4c435359 	mcrrmi	3, 5, r5, r3, cr9
     7ac:	5f4b434f 	svcpl	0x004b434f
     7b0:	5f455348 	svcpl	0x00455348
     7b4:	52554f53 	subspl	r4, r5, #332	; 0x14c
     7b8:	41004543 	tstmi	r0, r3, asr #10
     7bc:	004c5246 	subeq	r5, ip, r6, asr #4
     7c0:	53414c46 	movtpl	r4, #7238	; 0x1c46
     7c4:	414c5f48 	cmpmi	ip, r8, asr #30
     7c8:	434e4554 	movtmi	r4, #58708	; 0xe554
     7cc:	5f345f59 	svcpl	0x00345f59
     7d0:	54494157 	strbpl	r4, [r9], #-343	; 0xfffffea9
     7d4:	4154535f 	cmpmi	r4, pc, asr r3
     7d8:	00534554 	subseq	r4, r3, r4, asr r5
     7dc:	4e4c4c50 	mcrmi	12, 2, r4, cr12, cr0, {2}
     7e0:	5649445f 			; <UNDEFINED> instruction: 0x5649445f
     7e4:	52454449 	subpl	r4, r5, #1224736768	; 0x49000000
     7e8:	0031375f 	eorseq	r3, r1, pc, asr r7
     7ec:	31425041 	cmpcc	r2, r1, asr #32
     7f0:	5649445f 			; <UNDEFINED> instruction: 0x5649445f
     7f4:	44454449 	strbmi	r4, [r5], #-1097	; 0xfffffbb7
     7f8:	5f59425f 	svcpl	0x0059425f
     7fc:	50410032 	subpl	r0, r1, r2, lsr r0
     800:	445f3142 	ldrbmi	r3, [pc], #-322	; 808 <isr_vectors-0x7fff7f8>
     804:	44495649 	strbmi	r5, [r9], #-1609	; 0xfffff9b7
     808:	425f4445 	subsmi	r4, pc, #1157627904	; 0x45000000
     80c:	00345f59 	eorseq	r5, r4, r9, asr pc
     810:	4e4c4c50 	mcrmi	12, 2, r4, cr12, cr0, {2}
     814:	5649445f 			; <UNDEFINED> instruction: 0x5649445f
     818:	52454449 	subpl	r4, r5, #1224736768	; 0x49000000
     81c:	0038345f 	eorseq	r3, r8, pc, asr r4
     820:	31425041 	cmpcc	r2, r1, asr #32
     824:	5649445f 			; <UNDEFINED> instruction: 0x5649445f
     828:	44454449 	strbmi	r4, [r5], #-1097	; 0xfffffbb7
     82c:	5f59425f 	svcpl	0x0059425f
     830:	50470038 	subpl	r0, r7, r8, lsr r0
     834:	485f4f49 	ldmdami	pc, {r0, r3, r6, r8, r9, sl, fp, lr}^	; <UNPREDICTABLE>
     838:	5f484749 	svcpl	0x00484749
     83c:	45455053 	strbmi	r5, [r5, #-83]	; 0xffffffad
     840:	48410044 	stmdami	r1, {r2, r6}^
     844:	49445f42 	stmdbmi	r4, {r1, r6, r8, r9, sl, fp, ip, lr}^
     848:	45444956 	strbmi	r4, [r4, #-2390]	; 0xfffff6aa
     84c:	59425f44 	stmdbpl	r2, {r2, r6, r8, r9, sl, fp, ip, lr}^
     850:	5000325f 	andpl	r3, r0, pc, asr r2
     854:	5f4e4c4c 	svcpl	0x004e4c4c
     858:	49564944 	ldmdbmi	r6, {r2, r6, r8, fp, lr}^
     85c:	5f524544 	svcpl	0x00524544
     860:	41003033 	tstmi	r0, r3, lsr r0
     864:	445f4248 	ldrbmi	r4, [pc], #-584	; 86c <isr_vectors-0x7fff794>
     868:	44495649 	strbmi	r5, [r9], #-1609	; 0xfffff9b7
     86c:	425f4445 	subsmi	r4, pc, #1157627904	; 0x45000000
     870:	00345f59 	eorseq	r5, r4, r9, asr pc
     874:	4e4c4c50 	mcrmi	12, 2, r4, cr12, cr0, {2}
     878:	5649445f 			; <UNDEFINED> instruction: 0x5649445f
     87c:	52454449 	subpl	r4, r5, #1224736768	; 0x49000000
     880:	0032335f 	eorseq	r3, r2, pc, asr r3
     884:	4e4c4c50 	mcrmi	12, 2, r4, cr12, cr0, {2}
     888:	5649445f 			; <UNDEFINED> instruction: 0x5649445f
     88c:	52454449 	subpl	r4, r5, #1224736768	; 0x49000000
     890:	0033335f 	eorseq	r3, r3, pc, asr r3
     894:	4e4c4c50 	mcrmi	12, 2, r4, cr12, cr0, {2}
     898:	5649445f 			; <UNDEFINED> instruction: 0x5649445f
     89c:	52454449 	subpl	r4, r5, #1224736768	; 0x49000000
     8a0:	0034335f 	eorseq	r3, r4, pc, asr r3
     8a4:	5f424841 	svcpl	0x00424841
     8a8:	49564944 	ldmdbmi	r6, {r2, r6, r8, fp, lr}^
     8ac:	5f444544 	svcpl	0x00444544
     8b0:	385f5942 	ldmdacc	pc, {r1, r6, r8, fp, ip, lr}^	; <UNPREDICTABLE>
     8b4:	4c4c5000 	marmi	acc0, r5, ip
     8b8:	49445f4e 	stmdbmi	r4, {r1, r2, r3, r6, r8, r9, sl, fp, ip, lr}^
     8bc:	45444956 	strbmi	r4, [r4, #-2390]	; 0xfffff6aa
     8c0:	36335f52 	shsaxcc	r5, r3, r2
     8c4:	736e7500 	cmnvc	lr, #0, 10
     8c8:	656e6769 	strbvs	r6, [lr, #-1897]!	; 0xfffff897
     8cc:	68632064 	stmdavs	r3!, {r2, r5, r6, sp}^
     8d0:	50007261 	andpl	r7, r0, r1, ror #4
     8d4:	5f4e4c4c 	svcpl	0x004e4c4c
     8d8:	49564944 	ldmdbmi	r6, {r2, r6, r8, fp, lr}^
     8dc:	5f524544 	svcpl	0x00524544
     8e0:	50003833 	andpl	r3, r0, r3, lsr r8
     8e4:	5f4e4c4c 	svcpl	0x004e4c4c
     8e8:	49564944 	ldmdbmi	r6, {r2, r6, r8, fp, lr}^
     8ec:	5f524544 	svcpl	0x00524544
     8f0:	72003933 	andvc	r3, r0, #835584	; 0xcc000
     8f4:	735f6363 	cmpvc	pc, #-1946157055	; 0x8c000001
     8f8:	63757274 	cmnvs	r5, #116, 4	; 0x40000007
     8fc:	00745f74 	rsbseq	r5, r4, r4, ror pc
     900:	555c3a43 	ldrbpl	r3, [ip, #-2627]	; 0xfffff5bd
     904:	73726573 	cmnvc	r2, #482344960	; 0x1cc00000
     908:	6572745c 	ldrbvs	r7, [r2, #-1116]!	; 0xfffffba4
     90c:	445c6b6b 	ldrbmi	r6, [ip], #-2923	; 0xfffff495
     910:	746b7365 	strbtvc	r7, [fp], #-869	; 0xfffffc9b
     914:	545c706f 	ldrbpl	r7, [ip], #-111	; 0xffffff91
     918:	6b6b6572 	blvs	1ad9ee8 <isr_vectors-0x6526118>
     91c:	4f636554 	svcmi	0x00636554
     920:	68730053 	ldmdavs	r3!, {r0, r1, r4, r6}^
     924:	2074726f 	rsbscs	r7, r4, pc, ror #4
     928:	00746e69 	rsbseq	r6, r4, r9, ror #28
     92c:	43525243 	cmpmi	r2, #805306372	; 0x30000004
     930:	43520052 	cmpmi	r2, #82	; 0x52
     934:	464f5f43 	strbmi	r5, [pc], -r3, asr #30
     938:	5f544553 	svcpl	0x00544553
     93c:	544e4f44 	strbpl	r4, [lr], #-3908	; 0xfffff0bc
     940:	4553555f 	ldrbmi	r5, [r3, #-1375]	; 0xfffffaa1
     944:	5000355f 	andpl	r3, r0, pc, asr r5
     948:	535f4c4c 	cmppl	pc, #76, 24	; 0x4c00
     94c:	4352554f 	cmpmi	r2, #331350016	; 0x13c00000
     950:	53485f45 	movtpl	r5, #36677	; 0x8f45
     954:	00363149 	eorseq	r3, r6, r9, asr #2
     958:	33424841 	movtcc	r4, #10305	; 0x2841
     95c:	52545352 	subspl	r5, r4, #1207959553	; 0x48000001
     960:	42484100 	submi	r4, r8, #0, 2
     964:	524e4533 	subpl	r4, lr, #213909504	; 0xcc00000
     968:	6c696d00 	stclvs	13, cr6, [r9], #-0
     96c:	745f696c 	ldrbvc	r6, [pc], #-2412	; 974 <isr_vectors-0x7fff68c>
     970:	736b6369 	cmnvc	fp, #-1543503871	; 0xa4000001
     974:	42504100 	subsmi	r4, r0, #0, 2
     978:	49445f31 	stmdbmi	r4, {r0, r4, r5, r8, r9, sl, fp, ip, lr}^
     97c:	45444956 	strbmi	r4, [r4, #-2390]	; 0xfffff6aa
     980:	59425f44 	stmdbpl	r2, {r2, r6, r8, r9, sl, fp, ip, lr}^
     984:	0036315f 	eorseq	r3, r6, pc, asr r1
     988:	4e4c4c50 	mcrmi	12, 2, r4, cr12, cr0, {2}
     98c:	5649445f 			; <UNDEFINED> instruction: 0x5649445f
     990:	52454449 	subpl	r4, r5, #1224736768	; 0x49000000
     994:	0030345f 	eorseq	r3, r0, pc, asr r4
     998:	4e4c4c50 	mcrmi	12, 2, r4, cr12, cr0, {2}
     99c:	5649445f 			; <UNDEFINED> instruction: 0x5649445f
     9a0:	52454449 	subpl	r4, r5, #1224736768	; 0x49000000
     9a4:	0031345f 	eorseq	r3, r1, pc, asr r4
     9a8:	4e4c4c50 	mcrmi	12, 2, r4, cr12, cr0, {2}
     9ac:	5649445f 			; <UNDEFINED> instruction: 0x5649445f
     9b0:	52454449 	subpl	r4, r5, #1224736768	; 0x49000000
     9b4:	0032345f 	eorseq	r3, r2, pc, asr r4
     9b8:	4e4c4c50 	mcrmi	12, 2, r4, cr12, cr0, {2}
     9bc:	5649445f 			; <UNDEFINED> instruction: 0x5649445f
     9c0:	52454449 	subpl	r4, r5, #1224736768	; 0x49000000
     9c4:	0033345f 	eorseq	r3, r3, pc, asr r4
     9c8:	4e4c4c50 	mcrmi	12, 2, r4, cr12, cr0, {2}
     9cc:	5649445f 			; <UNDEFINED> instruction: 0x5649445f
     9d0:	52454449 	subpl	r4, r5, #1224736768	; 0x49000000
     9d4:	0034345f 	eorseq	r3, r4, pc, asr r4
     9d8:	4e4c4c50 	mcrmi	12, 2, r4, cr12, cr0, {2}
     9dc:	5649445f 			; <UNDEFINED> instruction: 0x5649445f
     9e0:	52454449 	subpl	r4, r5, #1224736768	; 0x49000000
     9e4:	0035345f 	eorseq	r3, r5, pc, asr r4
     9e8:	4e4c4c50 	mcrmi	12, 2, r4, cr12, cr0, {2}
     9ec:	5649445f 			; <UNDEFINED> instruction: 0x5649445f
     9f0:	52454449 	subpl	r4, r5, #1224736768	; 0x49000000
     9f4:	0036345f 	eorseq	r3, r6, pc, asr r4
     9f8:	4e4c4c50 	mcrmi	12, 2, r4, cr12, cr0, {2}
     9fc:	5649445f 			; <UNDEFINED> instruction: 0x5649445f
     a00:	52454449 	subpl	r4, r5, #1224736768	; 0x49000000
     a04:	0037345f 	eorseq	r3, r7, pc, asr r4
     a08:	4d4c4c50 	stclmi	12, cr4, [ip, #-320]	; 0xfffffec0
     a0c:	5649445f 			; <UNDEFINED> instruction: 0x5649445f
     a10:	52454449 	subpl	r4, r5, #1224736768	; 0x49000000
     a14:	5f4f4e5f 	svcpl	0x004f4e5f
     a18:	49564944 	ldmdbmi	r6, {r2, r6, r8, fp, lr}^
     a1c:	00524544 	subseq	r4, r2, r4, asr #10
     a20:	4e4c4c50 	mcrmi	12, 2, r4, cr12, cr0, {2}
     a24:	5649445f 			; <UNDEFINED> instruction: 0x5649445f
     a28:	52454449 	subpl	r4, r5, #1224736768	; 0x49000000
     a2c:	0039345f 	eorseq	r3, r9, pc, asr r4
     a30:	5f4c4c50 	svcpl	0x004c4c50
     a34:	52554f53 	subspl	r4, r5, #332	; 0x14c
     a38:	4e5f4543 	cdpmi	5, 5, cr4, cr15, cr3, {2}
     a3c:	4f535f4f 	svcmi	0x00535f4f
     a40:	45435255 	strbmi	r5, [r3, #-597]	; 0xfffffdab
     a44:	49504700 	ldmdbmi	r0, {r8, r9, sl, lr}^
     a48:	5f435f4f 	svcpl	0x00435f4f
     a4c:	42414e45 	submi	r4, r1, #1104	; 0x450
     a50:	505f454c 	subspl	r4, pc, ip, asr #10
     a54:	0054524f 	subseq	r5, r4, pc, asr #4
     a58:	6f697067 	svcvs	0x00697067
     a5c:	7274735f 	rsbsvc	r7, r4, #2080374785	; 0x7c000001
     a60:	5f746375 	svcpl	0x00746375
     a64:	48410074 	stmdami	r1, {r2, r4, r5, r6}^
     a68:	4d533142 	ldfmie	f3, [r3, #-264]	; 0xfffffef8
     a6c:	00524e45 	subseq	r4, r2, r5, asr #28
     a70:	4f495047 	svcmi	0x00495047
     a74:	414e415f 	cmpmi	lr, pc, asr r1
     a78:	5f474f4c 	svcpl	0x00474f4c
     a7c:	45444f4d 	strbmi	r4, [r4, #-3917]	; 0xfffff0b3
     a80:	42484100 	submi	r4, r8, #0, 2
     a84:	524e4532 	subpl	r4, lr, #209715200	; 0xc800000
     a88:	49504700 	ldmdbmi	r0, {r8, r9, sl, lr}^
     a8c:	5f455f4f 	svcpl	0x00455f4f
     a90:	42414e45 	submi	r4, r1, #1104	; 0x450
     a94:	505f454c 	subspl	r4, pc, ip, asr #10
     a98:	0054524f 	subseq	r5, r4, pc, asr #4
     a9c:	4f495047 	svcmi	0x00495047
     aa0:	54554f5f 	ldrbpl	r4, [r5], #-3935	; 0xfffff0a1
     aa4:	5f545550 	svcpl	0x00545550
     aa8:	45444f4d 	strbmi	r4, [r4, #-3917]	; 0xfffff0b3
     aac:	414c4600 	cmpmi	ip, r0, lsl #12
     ab0:	4c5f4853 	mrrcmi	8, 5, r4, pc, cr3	; <UNPREDICTABLE>
     ab4:	4e455441 	cdpmi	4, 4, cr5, cr5, cr1, {2}
     ab8:	305f5943 	subscc	r5, pc, r3, asr #18
     abc:	4941575f 	stmdbmi	r1, {r0, r1, r2, r3, r4, r6, r8, r9, sl, ip, lr}^
     ac0:	54535f54 	ldrbpl	r5, [r3], #-3924	; 0xfffff0ac
     ac4:	53455441 	movtpl	r5, #21569	; 0x5441
     ac8:	4c4f5600 	mcrrmi	6, 0, r5, pc, cr0
     acc:	45474154 	strbmi	r4, [r7, #-340]	; 0xfffffeac
     ad0:	4143535f 	cmpmi	r3, pc, asr r3
     ad4:	315f454c 	cmpcc	pc, ip, asr #10
     ad8:	4c4f5600 	mcrrmi	6, 0, r5, pc, cr0
     adc:	45474154 	strbmi	r4, [r7, #-340]	; 0xfffffeac
     ae0:	4143535f 	cmpmi	r3, pc, asr r3
     ae4:	325f454c 	subscc	r4, pc, #76, 10	; 0x13000000
     ae8:	52544300 	subspl	r4, r4, #0, 6
     aec:	4143004c 	cmpmi	r3, ip, asr #32
     af0:	0042494c 	subeq	r4, r2, ip, asr #18
     af4:	32425041 	subcc	r5, r2, #65	; 0x41
     af8:	00524e45 	subseq	r4, r2, r5, asr #28
     afc:	52434943 	subpl	r4, r3, #1097728	; 0x10c000
     b00:	49504700 	ldmdbmi	r0, {r8, r9, sl, lr}^
     b04:	5f485f4f 	svcpl	0x00485f4f
     b08:	42414e45 	submi	r4, r1, #1104	; 0x450
     b0c:	505f454c 	subspl	r4, pc, ip, asr #10
     b10:	0054524f 	subseq	r5, r4, pc, asr #4
     b14:	53414c46 	movtpl	r4, #7238	; 0x1c46
     b18:	414c5f48 	cmpmi	ip, r8, asr #30
     b1c:	434e4554 	movtmi	r4, #58708	; 0xe554
     b20:	5f335f59 	svcpl	0x00335f59
     b24:	54494157 	strbpl	r4, [r9], #-343	; 0xfffffea9
     b28:	4154535f 	cmpmi	r4, pc, asr r3
     b2c:	00534554 	subseq	r4, r3, r4, asr r5
     b30:	534c4c50 	movtpl	r4, #52304	; 0xcc50
     b34:	43314941 	teqmi	r1, #1064960	; 0x104000
     b38:	00524746 	subseq	r4, r2, r6, asr #14
     b3c:	52434442 	subpl	r4, r3, #1107296256	; 0x42000000
     b40:	4c4c5000 	marmi	acc0, r5, ip
     b44:	49445f4e 	stmdbmi	r4, {r1, r2, r3, r6, r8, r9, sl, fp, ip, lr}^
     b48:	45444956 	strbmi	r4, [r4, #-2390]	; 0xfffff6aa
     b4c:	30355f52 	eorscc	r5, r5, r2, asr pc
     b50:	4c4c5000 	marmi	acc0, r5, ip
     b54:	49445f4e 	stmdbmi	r4, {r1, r2, r3, r6, r8, r9, sl, fp, ip, lr}^
     b58:	45444956 	strbmi	r4, [r4, #-2390]	; 0xfffff6aa
     b5c:	31355f52 	teqcc	r5, r2, asr pc
     b60:	4c4c5000 	marmi	acc0, r5, ip
     b64:	49445f4e 	stmdbmi	r4, {r1, r2, r3, r6, r8, r9, sl, fp, ip, lr}^
     b68:	45444956 	strbmi	r4, [r4, #-2390]	; 0xfffff6aa
     b6c:	32355f52 	eorscc	r5, r5, #328	; 0x148
     b70:	4c4c5000 	marmi	acc0, r5, ip
     b74:	49445f4e 	stmdbmi	r4, {r1, r2, r3, r6, r8, r9, sl, fp, ip, lr}^
     b78:	45444956 	strbmi	r4, [r4, #-2390]	; 0xfffff6aa
     b7c:	33355f52 	teqcc	r5, #328	; 0x148
     b80:	4c4c5000 	marmi	acc0, r5, ip
     b84:	49445f4e 	stmdbmi	r4, {r1, r2, r3, r6, r8, r9, sl, fp, ip, lr}^
     b88:	45444956 	strbmi	r4, [r4, #-2390]	; 0xfffff6aa
     b8c:	34355f52 	ldrtcc	r5, [r5], #-3922	; 0xfffff0ae
     b90:	4c4c5000 	marmi	acc0, r5, ip
     b94:	49445f4e 	stmdbmi	r4, {r1, r2, r3, r6, r8, r9, sl, fp, ip, lr}^
     b98:	45444956 	strbmi	r4, [r4, #-2390]	; 0xfffff6aa
     b9c:	35355f52 	ldrcc	r5, [r5, #-3922]!	; 0xfffff0ae
     ba0:	4c4c5000 	marmi	acc0, r5, ip
     ba4:	49445f4e 	stmdbmi	r4, {r1, r2, r3, r6, r8, r9, sl, fp, ip, lr}^
     ba8:	45444956 	strbmi	r4, [r4, #-2390]	; 0xfffff6aa
     bac:	36355f52 	shsaxcc	r5, r5, r2
     bb0:	4c4c5000 	marmi	acc0, r5, ip
     bb4:	49445f4e 	stmdbmi	r4, {r1, r2, r3, r6, r8, r9, sl, fp, ip, lr}^
     bb8:	45444956 	strbmi	r4, [r4, #-2390]	; 0xfffff6aa
     bbc:	37355f52 			; <UNDEFINED> instruction: 0x37355f52
     bc0:	4c4c5000 	marmi	acc0, r5, ip
     bc4:	49445f4e 	stmdbmi	r4, {r1, r2, r3, r6, r8, r9, sl, fp, ip, lr}^
     bc8:	45444956 	strbmi	r4, [r4, #-2390]	; 0xfffff6aa
     bcc:	38355f52 	ldmdacc	r5!, {r1, r4, r6, r8, r9, sl, fp, ip, lr}
     bd0:	4c4c5000 	marmi	acc0, r5, ip
     bd4:	49445f4e 	stmdbmi	r4, {r1, r2, r3, r6, r8, r9, sl, fp, ip, lr}^
     bd8:	45444956 	strbmi	r4, [r4, #-2390]	; 0xfffff6aa
     bdc:	39355f52 	ldmdbcc	r5!, {r1, r4, r6, r8, r9, sl, fp, ip, lr}
     be0:	53434900 	movtpl	r4, #14592	; 0x3900
     be4:	41005243 	tstmi	r0, r3, asr #4
     be8:	53314250 	teqpl	r1, #80, 4
     bec:	524e454d 	subpl	r4, lr, #322961408	; 0x13400000
     bf0:	48410031 	stmdami	r1, {r0, r4, r5}^
     bf4:	4e453142 	dvfmism	f3, f5, f2
     bf8:	696d0052 	stmdbvs	sp!, {r1, r4, r6}^
     bfc:	5f6f7263 	svcpl	0x006f7263
     c00:	6b636974 	blvs	18db1d8 <isr_vectors-0x6724e28>
     c04:	50470073 	subpl	r0, r7, r3, ror r0
     c08:	495f4f49 	ldmdbmi	pc, {r0, r3, r6, r8, r9, sl, fp, lr}^	; <UNPREDICTABLE>
     c0c:	5455504e 	ldrbpl	r5, [r5], #-78	; 0xffffffb2
     c10:	444f4d5f 	strbmi	r4, [pc], #-3423	; c18 <isr_vectors-0x7fff3e8>
     c14:	616d0045 	cmnvs	sp, r5, asr #32
     c18:	43006e69 	movwmi	r6, #3689	; 0xe69
     c1c:	52504943 	subspl	r4, r0, #1097728	; 0x10c000
     c20:	4c4c5000 	marmi	acc0, r5, ip
     c24:	49445f4d 	stmdbmi	r4, {r0, r2, r3, r6, r8, r9, sl, fp, ip, lr}^
     c28:	45444956 	strbmi	r4, [r4, #-2390]	; 0xfffff6aa
     c2c:	00325f52 	eorseq	r5, r2, r2, asr pc
     c30:	4d4c4c50 	stclmi	12, cr4, [ip, #-320]	; 0xfffffec0
     c34:	5649445f 			; <UNDEFINED> instruction: 0x5649445f
     c38:	52454449 	subpl	r4, r5, #1224736768	; 0x49000000
     c3c:	5000335f 	andpl	r3, r0, pc, asr r3
     c40:	5f4d4c4c 	svcpl	0x004d4c4c
     c44:	49564944 	ldmdbmi	r6, {r2, r6, r8, fp, lr}^
     c48:	5f524544 	svcpl	0x00524544
     c4c:	4c500034 	mrrcmi	0, 3, r0, r0, cr4	; <UNPREDICTABLE>
     c50:	445f4d4c 	ldrbmi	r4, [pc], #-3404	; c58 <isr_vectors-0x7fff3a8>
     c54:	44495649 	strbmi	r5, [r9], #-1609	; 0xfffff9b7
     c58:	355f5245 	ldrbcc	r5, [pc, #-581]	; a1b <isr_vectors-0x7fff5e5>
     c5c:	4c4c5000 	marmi	acc0, r5, ip
     c60:	49445f4d 	stmdbmi	r4, {r0, r2, r3, r6, r8, r9, sl, fp, ip, lr}^
     c64:	45444956 	strbmi	r4, [r4, #-2390]	; 0xfffff6aa
     c68:	00365f52 	eorseq	r5, r6, r2, asr pc
     c6c:	4d4c4c50 	stclmi	12, cr4, [ip, #-320]	; 0xfffffec0
     c70:	5649445f 			; <UNDEFINED> instruction: 0x5649445f
     c74:	52454449 	subpl	r4, r5, #1224736768	; 0x49000000
     c78:	5000375f 	andpl	r3, r0, pc, asr r7
     c7c:	5f4d4c4c 	svcpl	0x004d4c4c
     c80:	49564944 	ldmdbmi	r6, {r2, r6, r8, fp, lr}^
     c84:	5f524544 	svcpl	0x00524544
     c88:	50410038 	subpl	r0, r1, r8, lsr r0
     c8c:	4d533142 	ldfmie	f3, [r3, #-264]	; 0xfffffef8
     c90:	32524e45 	subscc	r4, r2, #1104	; 0x450
     c94:	414c4600 	cmpmi	ip, r0, lsl #12
     c98:	4f5f4853 	svcmi	0x005f4853
     c9c:	45534646 	ldrbmi	r4, [r3, #-1606]	; 0xfffff9ba
     ca0:	4f445f54 	svcmi	0x00445f54
     ca4:	555f544e 	ldrbpl	r5, [pc, #-1102]	; 85e <isr_vectors-0x7fff7a2>
     ca8:	315f4553 	cmpcc	pc, r3, asr r5	; <UNPREDICTABLE>
     cac:	50525700 	subspl	r5, r2, r0, lsl #14
     cb0:	00524231 	subseq	r4, r2, r1, lsr r2
     cb4:	6c6f6f62 	stclvs	15, cr6, [pc], #-392	; b34 <isr_vectors-0x7fff4cc>
     cb8:	616c6600 	cmnvs	ip, r0, lsl #12
     cbc:	735f6873 	cmpvc	pc, #7536640	; 0x730000
     cc0:	63757274 	cmnvs	r5, #116, 4	; 0x40000007
     cc4:	00745f74 	rsbseq	r5, r4, r4, ror pc
     cc8:	73616c66 	cmnvc	r1, #26112	; 0x6600
     ccc:	616c5f68 	cmnvs	ip, r8, ror #30
     cd0:	636e6574 	cmnvs	lr, #116, 10	; 0x1d000000
     cd4:	61765f79 	cmnvs	r6, r9, ror pc
     cd8:	5f65756c 	svcpl	0x0065756c
     cdc:	65530074 	ldrbvs	r0, [r3, #-116]	; 0xffffff8c
     ce0:	616c4674 	smcvs	50276	; 0xc464
     ce4:	614c6873 	hvcvs	50819	; 0xc683
     ce8:	636e6574 	cmnvs	lr, #116, 10	; 0x1d000000
     cec:	43450079 	movtmi	r0, #20601	; 0x5079
     cf0:	6f005243 	svcvs	0x00005243
     cf4:	66664f6e 	strbtvs	r4, [r6], -lr, ror #30
     cf8:	676f5400 	strbvs	r5, [pc, -r0, lsl #8]!
     cfc:	49656c67 	stmdbmi	r5!, {r0, r1, r2, r5, r6, sl, fp, sp, lr}^
     d00:	7274736e 	rsbsvc	r7, r4, #-1207959551	; 0xb8000001
     d04:	69746375 	ldmdbvs	r4!, {r0, r2, r4, r5, r6, r8, r9, sp, lr}^
     d08:	61436e6f 	cmpvs	r3, pc, ror #28
     d0c:	00656863 	rsbeq	r6, r5, r3, ror #16
     d10:	4b54504f 	blmi	1514e54 <isr_vectors-0x6aeb1ac>
     d14:	00525945 	subseq	r5, r2, r5, asr #18
     d18:	6574616c 	ldrbvs	r6, [r4, #-364]!	; 0xfffffe94
     d1c:	0079636e 	rsbseq	r6, r9, lr, ror #6
     d20:	67676f54 			; <UNDEFINED> instruction: 0x67676f54
     d24:	6144656c 	cmpvs	r4, ip, ror #10
     d28:	61436174 	hvcvs	13844	; 0x3614
     d2c:	00656863 	rsbeq	r6, r5, r3, ror #16
     d30:	454b4450 	strbmi	r4, [fp, #-1104]	; 0xfffffbb0
     d34:	50005259 	andpl	r5, r0, r9, asr r2
     d38:	504f5243 	subpl	r5, pc, r3, asr #4
     d3c:	00524531 	subseq	r4, r2, r1, lsr r5
     d40:	2f637273 	svccs	0x00637273
     d44:	73616c66 	cmnvc	r1, #26112	; 0x6600
     d48:	00632e68 	rsbeq	r2, r3, r8, ror #28
     d4c:	53414c46 	movtpl	r4, #7238	; 0x1c46
     d50:	52570048 	subspl	r0, r7, #72	; 0x48
     d54:	52413150 	subpl	r3, r1, #80, 2
     d58:	676f5400 	strbvs	r5, [pc, -r0, lsl #8]!
     d5c:	50656c67 	rsbpl	r6, r5, r7, ror #24
     d60:	65666572 	strbvs	r6, [r6, #-1394]!	; 0xfffffa8e
     d64:	42686374 	rsbmi	r6, r8, #116, 6	; 0xd0000001
     d68:	65666675 	strbvs	r6, [r6, #-1653]!	; 0xfffff98b
     d6c:	504f0072 	subpl	r0, pc, r2, ror r0	; <UNPREDICTABLE>
     d70:	50005254 	andpl	r5, r0, r4, asr r2
     d74:	504f5243 	subpl	r5, pc, r3, asr #4
     d78:	00525331 	subseq	r5, r2, r1, lsr r3
     d7c:	65657073 	strbvs	r7, [r5, #-115]!	; 0xffffff8d
     d80:	5f5f0064 	svcpl	0x005f0064
     d84:	746e6975 	strbtvc	r6, [lr], #-2421	; 0xfffff68b
     d88:	00745f38 	rsbseq	r5, r4, r8, lsr pc
     d8c:	4c4c5550 	cfstr64mi	mvdx5, [ip], {80}	; 0x50
     d90:	67005055 	smlsdvs	r0, r5, r0, r5
     d94:	5f6f6970 	svcpl	0x006f6970
     d98:	5f6e6970 	svcpl	0x006e6970
     d9c:	65657073 	strbvs	r7, [r5, #-115]!	; 0xffffff8d
     da0:	00745f64 	rsbseq	r5, r4, r4, ror #30
     da4:	50746553 	rsbspl	r6, r4, r3, asr r5
     da8:	70536e69 	subsvc	r6, r3, r9, ror #28
     dac:	00646565 	rsbeq	r6, r4, r5, ror #10
     db0:	6f697067 	svcvs	0x00697067
     db4:	6c75705f 	ldclvs	0, cr7, [r5], #-380	; 0xfffffe84
     db8:	5f70756c 	svcpl	0x0070756c
     dbc:	6c6c7570 	cfstr64vs	mvdx7, [ip], #-448	; 0xfffffe40
     dc0:	6e776f64 	cdpvs	15, 7, cr6, cr7, cr4, {3}
     dc4:	5300745f 	movwpl	r7, #1119	; 0x45f
     dc8:	69507465 	ldmdbvs	r0, {r0, r2, r5, r6, sl, ip, sp, lr}^
     dcc:	646f4d6e 	strbtvs	r4, [pc], #-3438	; dd4 <isr_vectors-0x7fff22c>
     dd0:	6f6d0065 	svcvs	0x006d0065
     dd4:	70006564 	andvc	r6, r0, r4, ror #10
     dd8:	556c6c75 	strbpl	r6, [ip, #-3189]!	; 0xfffff38b
     ddc:	6c755070 	ldclvs	0, cr5, [r5], #-448	; 0xfffffe40
     de0:	776f446c 	strbvc	r4, [pc, -ip, ror #8]!
     de4:	6f54006e 	svcvs	0x0054006e
     de8:	656c6767 	strbvs	r6, [ip, #-1895]!	; 0xfffff899
     dec:	006e6950 	rsbeq	r6, lr, r0, asr r9
     df0:	74726f70 	ldrbtvc	r6, [r2], #-3952	; 0xfffff090
     df4:	5f4f4e00 	svcpl	0x004f4e00
     df8:	4c4c5550 	cfstr64mi	mvdx5, [ip], {80}	; 0x50
     dfc:	4e5f5055 	mrcmi	0, 2, r5, cr15, cr5, {2}
     e00:	55505f4f 	ldrbpl	r5, [r0, #-3919]	; 0xfffff0b1
     e04:	4f444c4c 	svcmi	0x00444c4c
     e08:	67004e57 	smlsdvs	r0, r7, lr, r4
     e0c:	5f6f6970 	svcpl	0x006f6970
     e10:	5f6e6970 	svcpl	0x006e6970
     e14:	65646f6d 	strbvs	r6, [r4, #-3949]!	; 0xfffff093
     e18:	7300745f 	movwvc	r7, #1119	; 0x45f
     e1c:	672f6372 			; <UNDEFINED> instruction: 0x672f6372
     e20:	2e6f6970 			; <UNDEFINED> instruction: 0x2e6f6970
     e24:	65530063 	ldrbvs	r0, [r3, #-99]	; 0xffffff9d
     e28:	6c755074 	ldclvs	0, cr5, [r5], #-464	; 0xfffffe30
     e2c:	5070556c 	rsbspl	r5, r0, ip, ror #10
     e30:	446c6c75 	strbtmi	r6, [ip], #-3189	; 0xfffff38b
     e34:	006e776f 	rsbeq	r7, lr, pc, ror #14
     e38:	5f525750 	svcpl	0x00525750
     e3c:	5346464f 	movtpl	r4, #26191	; 0x664f
     e40:	445f5445 	ldrbmi	r5, [pc], #-1093	; e48 <isr_vectors-0x7fff1b8>
     e44:	5f544e4f 	svcpl	0x00544e4f
     e48:	5f455355 	svcpl	0x00455355
     e4c:	65530031 	ldrbvs	r0, [r3, #-49]	; 0xffffffcf
     e50:	6c6f5674 	stclvs	6, cr5, [pc], #-464	; c88 <isr_vectors-0x7fff378>
     e54:	65676174 	strbvs	r6, [r7, #-372]!	; 0xfffffe8c
     e58:	75676552 	strbvc	r6, [r7, #-1362]!	; 0xfffffaae
     e5c:	6f74616c 	svcvs	0x0074616c
     e60:	61635372 	smcvs	13618	; 0x3532
     e64:	7300656c 	movwvc	r6, #1388	; 0x56c
     e68:	656c6163 	strbvs	r6, [ip, #-355]!	; 0xfffffe9d
     e6c:	63727300 	cmnvs	r2, #0, 6
     e70:	776f702f 	strbvc	r7, [pc, -pc, lsr #32]!
     e74:	632e7265 			; <UNDEFINED> instruction: 0x632e7265
     e78:	52575000 	subspl	r5, r7, #0
     e7c:	46464f5f 			; <UNDEFINED> instruction: 0x46464f5f
     e80:	5f544553 	svcpl	0x00544553
     e84:	544e4f44 	strbpl	r4, [lr], #-3908	; 0xfffff0bc
     e88:	4553555f 	ldrbmi	r5, [r3, #-1375]	; 0xfffffaa1
     e8c:	5000305f 	andpl	r3, r0, pc, asr r0
     e90:	4f5f5257 	svcmi	0x005f5257
     e94:	45534646 	ldrbmi	r4, [r3, #-1606]	; 0xfffff9ba
     e98:	4f445f54 	svcmi	0x00445f54
     e9c:	555f544e 	ldrbpl	r5, [pc, #-1102]	; a56 <isr_vectors-0x7fff5aa>
     ea0:	325f4553 	subscc	r4, pc, #348127232	; 0x14c00000
     ea4:	52575000 	subspl	r5, r7, #0
     ea8:	46464f5f 			; <UNDEFINED> instruction: 0x46464f5f
     eac:	5f544553 	svcpl	0x00544553
     eb0:	544e4f44 	strbpl	r4, [lr], #-3908	; 0xfffff0bc
     eb4:	4553555f 	ldrbmi	r5, [r3, #-1375]	; 0xfffffaa1
     eb8:	5000345f 	andpl	r3, r0, pc, asr r4
     ebc:	41524355 	cmpmi	r2, r5, asr r3
     ec0:	43555000 	cmpmi	r5, #0
     ec4:	50004252 	andpl	r4, r0, r2, asr r2
     ec8:	43524355 	cmpmi	r2, #1409286145	; 0x54000001
     ecc:	43555000 	cmpmi	r5, #0
     ed0:	50004452 	andpl	r4, r0, r2, asr r4
     ed4:	45524355 	ldrbmi	r4, [r2, #-853]	; 0xfffffcab
     ed8:	43555000 	cmpmi	r5, #0
     edc:	76004852 			; <UNDEFINED> instruction: 0x76004852
     ee0:	74616c6f 	strbtvc	r6, [r1], #-3183	; 0xfffff391
     ee4:	65725f65 	ldrbvs	r5, [r2, #-3941]!	; 0xfffff09b
     ee8:	616c7567 	cmnvs	ip, r7, ror #10
     eec:	5f726f74 	svcpl	0x00726f74
     ef0:	6c616373 	stclvs	3, cr6, [r1], #-460	; 0xfffffe34
     ef4:	00745f65 	rsbseq	r5, r4, r5, ror #30
     ef8:	5f727770 	svcpl	0x00727770
     efc:	75727473 	ldrbvc	r7, [r2, #-1139]!	; 0xfffffb8d
     f00:	745f7463 	ldrbvc	r7, [pc], #-1123	; f08 <isr_vectors-0x7fff0f8>
     f04:	52575000 	subspl	r5, r7, #0
     f08:	46464f5f 			; <UNDEFINED> instruction: 0x46464f5f
     f0c:	5f544553 	svcpl	0x00544553
     f10:	544e4f44 	strbpl	r4, [lr], #-3908	; 0xfffff0bc
     f14:	4553555f 	ldrbmi	r5, [r3, #-1375]	; 0xfffffaa1
     f18:	5000335f 	andpl	r3, r0, pc, asr r3
     f1c:	41524344 	cmpmi	r2, r4, asr #6
     f20:	43445000 	movtmi	r5, #16384	; 0x4000
     f24:	50004252 	andpl	r4, r0, r2, asr r2
     f28:	43524344 	cmpmi	r2, #68, 6	; 0x10000001
     f2c:	43445000 	movtmi	r5, #16384	; 0x4000
     f30:	50004452 	andpl	r4, r0, r2, asr r4
     f34:	45524344 	ldrbmi	r4, [r2, #-836]	; 0xfffffcbc
     f38:	43445000 	movtmi	r5, #16384	; 0x4000
     f3c:	70004852 	andvc	r4, r0, r2, asr r8
     f40:	5f726c6c 	svcpl	0x00726c6c
     f44:	69766964 	ldmdbvs	r6!, {r2, r5, r6, r8, fp, sp, lr}^
     f48:	5f726564 	svcpl	0x00726564
     f4c:	756c6176 	strbvc	r6, [ip, #-374]!	; 0xfffffe8a
     f50:	00745f65 	rsbseq	r5, r4, r5, ror #30
     f54:	67676f54 			; <UNDEFINED> instruction: 0x67676f54
     f58:	4c50656c 	cfldr64mi	mvdx6, [r0], {108}	; 0x6c
     f5c:	74754f4c 	ldrbtvc	r4, [r5], #-3916	; 0xfffff0b4
     f60:	00747570 	rsbseq	r7, r4, r0, ror r5
     f64:	53746553 	cmnpl	r4, #348127232	; 0x14c00000
     f68:	65747379 	ldrbvs	r7, [r4, #-889]!	; 0xfffffc87
     f6c:	6f6c436d 	svcvs	0x006c436d
     f70:	6f536b63 	svcvs	0x00536b63
     f74:	65637275 	strbvs	r7, [r3, #-629]!	; 0xfffffd8b
     f78:	756f7300 	strbvc	r7, [pc, #-768]!	; c80 <isr_vectors-0x7fff380>
     f7c:	00656372 	rsbeq	r6, r5, r2, ror r3
     f80:	50746553 	rsbspl	r6, r4, r3, asr r5
     f84:	004d4c4c 	subeq	r4, sp, ip, asr #24
     f88:	41746553 	cmnmi	r4, r3, asr r5
     f8c:	50314250 	eorspl	r4, r1, r0, asr r2
     f90:	63736572 	cmnvs	r3, #478150656	; 0x1c800000
     f94:	72656c61 	rsbvc	r6, r5, #24832	; 0x6100
     f98:	62686100 	rsbvs	r6, r8, #0, 2
     f9c:	6572705f 	ldrbvs	r7, [r2, #-95]!	; 0xffffffa1
     fa0:	6c616373 	stclvs	3, cr6, [r1], #-460	; 0xfffffe34
     fa4:	765f7265 	ldrbvc	r7, [pc], -r5, ror #4
     fa8:	65756c61 	ldrbvs	r6, [r5, #-3169]!	; 0xfffff39f
     fac:	00745f73 	rsbseq	r5, r4, r3, ror pc
     fb0:	67676f54 			; <UNDEFINED> instruction: 0x67676f54
     fb4:	5348656c 	movtpl	r6, #34156	; 0x856c
     fb8:	6f540045 	svcvs	0x00540045
     fbc:	656c6767 	strbvs	r6, [ip, #-1895]!	; 0xfffff899
     fc0:	00495348 	subeq	r5, r9, r8, asr #6
     fc4:	67676f54 			; <UNDEFINED> instruction: 0x67676f54
     fc8:	4c50656c 	cfldr64mi	mvdx6, [r0], {108}	; 0x6c
     fcc:	6553004c 	ldrbvs	r0, [r3, #-76]	; 0xffffffb4
     fd0:	42484174 	submi	r4, r8, #116, 2
     fd4:	73657250 	cmnvc	r5, #80, 4
     fd8:	656c6163 	strbvs	r6, [ip, #-355]!	; 0xfffffe9d
     fdc:	61760072 	cmnvs	r6, r2, ror r0
     fe0:	0065756c 	rsbeq	r7, r5, ip, ror #10
     fe4:	67676f54 			; <UNDEFINED> instruction: 0x67676f54
     fe8:	534d656c 	movtpl	r6, #54636	; 0xd56c
     fec:	6c700049 	ldclvs	0, cr0, [r0], #-292	; 0xfffffedc
     ff0:	6f735f6c 	svcvs	0x00735f6c
     ff4:	65637275 	strbvs	r7, [r3, #-629]!	; 0xfffffd8b
     ff8:	7300745f 	movwvc	r7, #1119	; 0x45f
     ffc:	65747379 	ldrbvs	r7, [r4, #-889]!	; 0xfffffc87
    1000:	6c635f6d 	stclvs	15, cr5, [r3], #-436	; 0xfffffe4c
    1004:	5f6b636f 	svcpl	0x006b636f
    1008:	72756f73 	rsbsvc	r6, r5, #460	; 0x1cc
    100c:	745f6563 	ldrbvc	r6, [pc], #-1379	; 1014 <isr_vectors-0x7ffefec>
    1010:	74655300 	strbtvc	r5, [r5], #-768	; 0xfffffd00
    1014:	4e4c4c50 	mcrmi	12, 2, r4, cr12, cr0, {2}
    1018:	74655300 	strbtvc	r5, [r5], #-768	; 0xfffffd00
    101c:	524c4c50 	subpl	r4, ip, #80, 24	; 0x5000
    1020:	74655300 	strbtvc	r5, [r5], #-768	; 0xfffffd00
    1024:	32425041 	subcc	r5, r2, #65	; 0x41
    1028:	73657250 	cmnvc	r5, #80, 4
    102c:	656c6163 	strbvs	r6, [ip, #-355]!	; 0xfffffe9d
    1030:	70610072 	rsbvc	r0, r1, r2, ror r0
    1034:	705f3162 	subsvc	r3, pc, r2, ror #2
    1038:	63736572 	cmnvs	r3, #478150656	; 0x1c800000
    103c:	72656c61 	rsbvc	r6, r5, #24832	; 0x6100
    1040:	6c61765f 	stclvs	6, cr7, [r1], #-380	; 0xfffffe84
    1044:	745f6575 	ldrbvc	r6, [pc], #-1397	; 104c <isr_vectors-0x7ffefb4>
    1048:	676f5400 	strbvs	r5, [pc, -r0, lsl #8]!
    104c:	50656c67 	rsbpl	r6, r5, r7, ror #24
    1050:	7265776f 	rsbvc	r7, r5, #29097984	; 0x1bc0000
    1054:	65746e49 	ldrbvs	r6, [r4, #-3657]!	; 0xfffff1b7
    1058:	63616672 	cmnvs	r1, #119537664	; 0x7200000
    105c:	6f6c4365 	svcvs	0x006c4365
    1060:	64006b63 	strvs	r6, [r0], #-2915	; 0xfffff49d
    1064:	64697669 	strbtvs	r7, [r9], #-1641	; 0xfffff997
    1068:	466e6f69 	strbtmi	r6, [lr], -r9, ror #30
    106c:	6f746361 	svcvs	0x00746361
    1070:	70670072 	rsbvc	r0, r7, r2, ror r0
    1074:	655f6f69 	ldrbvs	r6, [pc, #-3945]	; 113 <isr_vectors-0x7fffeed>
    1078:	6c62616e 	stfvse	f6, [r2], #-440	; 0xfffffe48
    107c:	6f705f65 	svcvs	0x00705f65
    1080:	745f7472 	ldrbvc	r7, [pc], #-1138	; 1088 <isr_vectors-0x7ffef78>
    1084:	676f5400 	strbvs	r5, [pc, -r0, lsl #8]!
    1088:	47656c67 	strbmi	r6, [r5, -r7, ror #24]!
    108c:	436f6970 	cmnmi	pc, #112, 18	; 0x1c0000
    1090:	6b636f6c 	blvs	18dce48 <isr_vectors-0x67231b8>
    1094:	74655300 	strbtvc	r5, [r5], #-768	; 0xfffffd00
    1098:	534c4c50 	movtpl	r4, #52304	; 0xcc50
    109c:	6372756f 	cmnvs	r2, #465567744	; 0x1bc00000
    10a0:	6c700065 	ldclvs	0, cr0, [r0], #-404	; 0xfffffe6c
    10a4:	645f6d6c 	ldrbvs	r6, [pc], #-3436	; 10ac <isr_vectors-0x7ffef54>
    10a8:	64697669 	strbtvs	r7, [r9], #-1641	; 0xfffff997
    10ac:	765f7265 	ldrbvc	r7, [pc], -r5, ror #4
    10b0:	65756c61 	ldrbvs	r6, [r5, #-3169]!	; 0xfffff39f
    10b4:	6100745f 	tstvs	r0, pc, asr r4
    10b8:	5f326270 	svcpl	0x00326270
    10bc:	73657270 	cmnvc	r5, #112, 4
    10c0:	656c6163 	strbvs	r6, [ip, #-355]!	; 0xfffffe9d
    10c4:	61765f72 	cmnvs	r6, r2, ror pc
    10c8:	5f65756c 	svcpl	0x0065756c
    10cc:	6c700074 	ldclvs	0, cr0, [r0], #-464	; 0xfffffe30
    10d0:	6d5f6e6c 	ldclvs	14, cr6, [pc, #-432]	; f28 <isr_vectors-0x7fff0d8>
    10d4:	69746c75 	ldmdbvs	r4!, {r0, r2, r4, r5, r6, sl, fp, sp, lr}^
    10d8:	65696c70 	strbvs	r6, [r9, #-3184]!	; 0xfffff390
    10dc:	61765f72 	cmnvs	r6, r2, ror pc
    10e0:	5f65756c 	svcpl	0x0065756c
    10e4:	72730074 	rsbsvc	r0, r3, #116	; 0x74
    10e8:	63722f63 	cmnvs	r2, #396	; 0x18c
    10ec:	00632e63 	rsbeq	r2, r3, r3, ror #28
    10f0:	69676572 	stmdbvs	r7!, {r1, r4, r5, r6, r8, sl, sp, lr}^
    10f4:	72657473 	rsbvc	r7, r5, #1929379840	; 0x73000000
    10f8:	72646441 	rsbvc	r6, r4, #1090519040	; 0x41000000
    10fc:	7a697300 	bvc	1a5dd04 <isr_vectors-0x65a22fc>
    1100:	6c630065 	stclvs	0, cr0, [r3], #-404	; 0xfffffe6c
    1104:	56726165 	ldrbtpl	r6, [r2], -r5, ror #2
    1108:	65756c61 	ldrbvs	r6, [r5, #-3169]!	; 0xfffff39f
    110c:	69725700 	ldmdbvs	r2!, {r8, r9, sl, ip, lr}^
    1110:	6e496574 	mcrvs	5, 2, r6, cr9, cr4, {3}
    1114:	65526f74 	ldrbvs	r6, [r2, #-3956]	; 0xfffff08c
    1118:	74736967 	ldrbtvc	r6, [r3], #-2407	; 0xfffff699
    111c:	6f007265 	svcvs	0x00007265
    1120:	65736666 	ldrbvs	r6, [r3, #-1638]!	; 0xfffff99a
    1124:	72730074 	rsbsvc	r0, r3, #116	; 0x74
    1128:	65722f63 	ldrbvs	r2, [r2, #-3939]!	; 0xfffff09d
    112c:	74736967 	ldrbtvc	r6, [r3], #-2407	; 0xfffff699
    1130:	632e7265 			; <UNDEFINED> instruction: 0x632e7265
    1134:	63727300 	cmnvs	r2, #0, 6
    1138:	6d74732f 	ldclvs	3, cr7, [r4, #-188]!	; 0xffffff44
    113c:	346c3233 	strbtcc	r3, [ip], #-563	; 0xfffffdcd
    1140:	65723235 	ldrbvs	r3, [r2, #-565]!	; 0xfffffdcb
    1144:	4700632e 	strmi	r6, [r0, -lr, lsr #6]
    1148:	424f4950 	submi	r4, pc, #80, 18	; 0x140000
    114c:	49504700 	ldmdbmi	r0, {r8, r9, sl, lr}^
    1150:	4700434f 	strmi	r4, [r0, -pc, asr #6]
    1154:	454f4950 	strbmi	r4, [pc, #-2384]	; 80c <isr_vectors-0x7fff7f4>
    1158:	49504700 	ldmdbmi	r0, {r8, r9, sl, lr}^
    115c:	4700444f 	strmi	r4, [r0, -pc, asr #8]
    1160:	484f4950 	stmdami	pc, {r4, r6, r8, fp, lr}^	; <UNPREDICTABLE>
    1164:	63727300 	cmnvs	r2, #0, 6
    1168:	6573752f 	ldrbvs	r7, [r3, #-1327]!	; 0xfffffad1
    116c:	69616d72 	stmdbvs	r1!, {r1, r4, r5, r6, r8, sl, fp, sp, lr}^
    1170:	00632e6e 	rsbeq	r2, r3, lr, ror #28
    1174:	75746573 	ldrbvc	r6, [r4, #-1395]!	; 0xfffffa8d
    1178:	6f6c0070 	svcvs	0x006c0070
    117c:	6c00706f 	stcvs	0, cr7, [r0], {111}	; 0x6f
    1180:	53747361 	cmnpl	r4, #-2080374783	; 0x84000001
    1184:	65746174 	ldrbvs	r6, [r4, #-372]!	; 0xfffffe8c
    1188:	546c7500 	strbtpl	r7, [ip], #-1280	; 0xfffffb00
    118c:	00656d69 	rsbeq	r6, r5, r9, ror #26
    1190:	72617473 	rsbvc	r7, r1, #1929379840	; 0x73000000
    1194:	2e707574 	mrccs	5, 3, r7, cr0, cr4, {3}
    1198:	65520063 	ldrbvs	r0, [r2, #-99]	; 0xffffff9d
    119c:	5f746573 	svcpl	0x00746573
    11a0:	646e6148 	strbtvs	r6, [lr], #-328	; 0xfffffeb8
    11a4:	0072656c 	rsbseq	r6, r2, ip, ror #10
    11a8:	646e655f 	strbtvs	r6, [lr], #-1375	; 0xfffffaa1
    11ac:	7342664f 	movtvc	r6, #9807	; 0x264f
    11b0:	53700073 	cmnpl	r0, #115	; 0x73
    11b4:	5f006372 	svcpl	0x00006372
    11b8:	4f646e65 	svcmi	0x00646e65
    11bc:	78655466 	stmdavc	r5!, {r1, r2, r5, r6, sl, ip, lr}^
    11c0:	655f0074 	ldrbvs	r0, [pc, #-116]	; 1154 <isr_vectors-0x7ffeeac>
    11c4:	664f646e 	strbvs	r6, [pc], -lr, ror #8
    11c8:	61746144 	cmnvs	r4, r4, asr #2
    11cc:	74735f00 	ldrbtvc	r5, [r3], #-3840	; 0xfffff100
    11d0:	4f747261 	svcmi	0x00747261
    11d4:	73734266 	cmnvc	r3, #1610612742	; 0x60000006
    11d8:	73447000 	movtvc	r7, #16384	; 0x4000
    11dc:	73690074 	cmnvc	r9, #116	; 0x74
    11e0:	65765f72 	ldrbvs	r5, [r6, #-3954]!	; 0xfffff08e
    11e4:	726f7463 	rsbvc	r7, pc, #1660944384	; 0x63000000
    11e8:	6f430073 	svcvs	0x00430073
    11ec:	6e6f6d6d 	cdpvs	13, 6, cr6, cr15, cr13, {3}
    11f0:	6e61485f 	mcrvs	8, 3, r4, cr1, cr15, {2}
    11f4:	72656c64 	rsbvc	r6, r5, #100, 24	; 0x6400
    11f8:	74735f00 	ldrbtvc	r5, [r3], #-3840	; 0xfffff100
    11fc:	4f747261 	svcmi	0x00747261
    1200:	74614466 	strbtvc	r4, [r1], #-1126	; 0xfffffb9a
    1204:	Address 0x00001204 is out of bounds.


Disassembly of section .comment:

00000000 <.comment>:
   0:	3a434347 	bcc	10d0d24 <isr_vectors-0x6f2f2dc>
   4:	4e472820 	cdpmi	8, 4, cr2, cr7, cr0, {1}
   8:	72412055 	subvc	r2, r1, #85	; 0x55
   c:	6d45206d 	stclvs	0, cr2, [r5, #-436]	; 0xfffffe4c
  10:	64646562 	strbtvs	r6, [r4], #-1378	; 0xfffffa9e
  14:	54206465 	strtpl	r6, [r0], #-1125	; 0xfffffb9b
  18:	636c6f6f 	cmnvs	ip, #444	; 0x1bc
  1c:	6e696168 	powvsez	f6, f1, #0.0
  20:	2e303120 	rsfcssp	f3, f0, f0
  24:	30322d33 	eorscc	r2, r2, r3, lsr sp
  28:	302e3132 	eorcc	r3, lr, r2, lsr r1
  2c:	31202937 			; <UNDEFINED> instruction: 0x31202937
  30:	2e332e30 	mrccs	14, 1, r2, cr3, cr0, {1}
  34:	30322031 	eorscc	r2, r2, r1, lsr r0
  38:	36303132 			; <UNDEFINED> instruction: 0x36303132
  3c:	28203132 	stmdacs	r0!, {r1, r4, r5, r8, ip, sp}
  40:	656c6572 	strbvs	r6, [ip, #-1394]!	; 0xfffffa8e
  44:	29657361 	stmdbcs	r5!, {r0, r5, r6, r8, r9, ip, sp, lr}^
	...

Disassembly of section .ARM.attributes:

00000000 <.ARM.attributes>:
   0:	00002d41 	andeq	r2, r0, r1, asr #26
   4:	61656100 	cmnvs	r5, r0, lsl #2
   8:	01006962 	tsteq	r0, r2, ror #18
   c:	00000023 	andeq	r0, r0, r3, lsr #32
  10:	2d453705 	stclcs	7, cr3, [r5, #-20]	; 0xffffffec
  14:	0d06004d 	stceq	0, cr0, [r6, #-308]	; 0xfffffecc
  18:	02094d07 	andeq	r4, r9, #448	; 0x1c0
  1c:	01140412 	tsteq	r4, r2, lsl r4
  20:	03170115 	tsteq	r7, #1073741829	; 0x40000005
  24:	01190118 	tsteq	r9, r8, lsl r1
  28:	061e011a 			; <UNDEFINED> instruction: 0x061e011a
  2c:	Address 0x0000002c is out of bounds.


Disassembly of section .debug_frame:

00000000 <.debug_frame>:
   0:	0000000c 	andeq	r0, r0, ip
   4:	ffffffff 			; <UNDEFINED> instruction: 0xffffffff
   8:	7c020001 	stcvc	0, cr0, [r2], {1}
   c:	000d0c0e 	andeq	r0, sp, lr, lsl #24
  10:	00000018 	andeq	r0, r0, r8, lsl r0
  14:	00000000 	andeq	r0, r0, r0
  18:	08000188 	stmdaeq	r0, {r3, r7, r8}
  1c:	00000150 	andeq	r0, r0, r0, asr r1
  20:	87080e41 	strhi	r0, [r8, -r1, asr #28]
  24:	41018e02 	tstmi	r1, r2, lsl #28
  28:	0000070d 	andeq	r0, r0, sp, lsl #14
  2c:	0000001c 	andeq	r0, r0, ip, lsl r0
  30:	00000000 	andeq	r0, r0, r0
  34:	080002d8 	stmdaeq	r0, {r3, r4, r6, r7, r9}
  38:	00000048 	andeq	r0, r0, r8, asr #32
  3c:	87040e41 	strhi	r0, [r4, -r1, asr #28]
  40:	070d4101 	streq	r4, [sp, -r1, lsl #2]
  44:	410d0d59 	tstmi	sp, r9, asr sp
  48:	00000ec7 	andeq	r0, r0, r7, asr #29
  4c:	00000018 	andeq	r0, r0, r8, lsl r0
  50:	00000000 	andeq	r0, r0, r0
  54:	08000320 	stmdaeq	r0, {r5, r8, r9}
  58:	00000012 	andeq	r0, r0, r2, lsl r0
  5c:	87080e41 	strhi	r0, [r8, -r1, asr #28]
  60:	41018e02 	tstmi	r1, r2, lsl #28
  64:	0000070d 	andeq	r0, r0, sp, lsl #14
  68:	0000000c 	andeq	r0, r0, ip
  6c:	ffffffff 			; <UNDEFINED> instruction: 0xffffffff
  70:	7c020001 	stcvc	0, cr0, [r2], {1}
  74:	000d0c0e 	andeq	r0, sp, lr, lsl #24
  78:	00000020 	andeq	r0, r0, r0, lsr #32
  7c:	00000068 	andeq	r0, r0, r8, rrx
  80:	08000334 	stmdaeq	r0, {r2, r4, r5, r8, r9}
  84:	00000024 	andeq	r0, r0, r4, lsr #32
  88:	87080e41 	strhi	r0, [r8, -r1, asr #28]
  8c:	41018e02 	tstmi	r1, r2, lsl #28
  90:	0d41100e 	stcleq	0, cr1, [r1, #-56]	; 0xffffffc8
  94:	080e4b07 	stmdaeq	lr, {r0, r1, r2, r8, r9, fp, lr}
  98:	000d0d41 	andeq	r0, sp, r1, asr #26
  9c:	00000020 	andeq	r0, r0, r0, lsr #32
  a0:	00000068 	andeq	r0, r0, r8, rrx
  a4:	08000358 	stmdaeq	r0, {r3, r4, r6, r8, r9}
  a8:	00000024 	andeq	r0, r0, r4, lsr #32
  ac:	87080e41 	strhi	r0, [r8, -r1, asr #28]
  b0:	41018e02 	tstmi	r1, r2, lsl #28
  b4:	0d41100e 	stcleq	0, cr1, [r1, #-56]	; 0xffffffc8
  b8:	080e4b07 	stmdaeq	lr, {r0, r1, r2, r8, r9, fp, lr}
  bc:	000d0d41 	andeq	r0, sp, r1, asr #26
  c0:	00000020 	andeq	r0, r0, r0, lsr #32
  c4:	00000068 	andeq	r0, r0, r8, rrx
  c8:	0800037c 	stmdaeq	r0, {r2, r3, r4, r5, r6, r8, r9}
  cc:	00000024 	andeq	r0, r0, r4, lsr #32
  d0:	87080e41 	strhi	r0, [r8, -r1, asr #28]
  d4:	41018e02 	tstmi	r1, r2, lsl #28
  d8:	0d41100e 	stcleq	0, cr1, [r1, #-56]	; 0xffffffc8
  dc:	080e4b07 	stmdaeq	lr, {r0, r1, r2, r8, r9, fp, lr}
  e0:	000d0d41 	andeq	r0, sp, r1, asr #26
  e4:	00000020 	andeq	r0, r0, r0, lsr #32
  e8:	00000068 	andeq	r0, r0, r8, rrx
  ec:	080003a0 	stmdaeq	r0, {r5, r7, r8, r9}
  f0:	00000028 	andeq	r0, r0, r8, lsr #32
  f4:	87080e41 	strhi	r0, [r8, -r1, asr #28]
  f8:	41018e02 	tstmi	r1, r2, lsl #28
  fc:	0d41100e 	stcleq	0, cr1, [r1, #-56]	; 0xffffffc8
 100:	080e4c07 	stmdaeq	lr, {r0, r1, r2, sl, fp, lr}
 104:	000d0d41 	andeq	r0, sp, r1, asr #26
 108:	0000000c 	andeq	r0, r0, ip
 10c:	ffffffff 			; <UNDEFINED> instruction: 0xffffffff
 110:	7c020001 	stcvc	0, cr0, [r2], {1}
 114:	000d0c0e 	andeq	r0, sp, lr, lsl #24
 118:	00000020 	andeq	r0, r0, r0, lsr #32
 11c:	00000108 	andeq	r0, r0, r8, lsl #2
 120:	080003c8 	stmdaeq	r0, {r3, r6, r7, r8, r9}
 124:	00000026 	andeq	r0, r0, r6, lsr #32
 128:	87080e41 	strhi	r0, [r8, -r1, asr #28]
 12c:	41018e02 	tstmi	r1, r2, lsl #28
 130:	0d41100e 	stcleq	0, cr1, [r1, #-56]	; 0xffffffc8
 134:	080e4e07 	stmdaeq	lr, {r0, r1, r2, r9, sl, fp, lr}
 138:	000d0d41 	andeq	r0, sp, r1, asr #26
 13c:	00000020 	andeq	r0, r0, r0, lsr #32
 140:	00000108 	andeq	r0, r0, r8, lsl #2
 144:	080003ee 	stmdaeq	r0, {r1, r2, r3, r5, r6, r7, r8, r9}
 148:	0000002a 	andeq	r0, r0, sl, lsr #32
 14c:	87080e41 	strhi	r0, [r8, -r1, asr #28]
 150:	41018e02 	tstmi	r1, r2, lsl #28
 154:	0d41100e 	stcleq	0, cr1, [r1, #-56]	; 0xffffffc8
 158:	080e5007 	stmdaeq	lr, {r0, r1, r2, ip, lr}
 15c:	000d0d41 	andeq	r0, sp, r1, asr #26
 160:	00000020 	andeq	r0, r0, r0, lsr #32
 164:	00000108 	andeq	r0, r0, r8, lsl #2
 168:	08000418 	stmdaeq	r0, {r3, r4, sl}
 16c:	0000002a 	andeq	r0, r0, sl, lsr #32
 170:	87080e41 	strhi	r0, [r8, -r1, asr #28]
 174:	41018e02 	tstmi	r1, r2, lsl #28
 178:	0d41100e 	stcleq	0, cr1, [r1, #-56]	; 0xffffffc8
 17c:	080e5007 	stmdaeq	lr, {r0, r1, r2, ip, lr}
 180:	000d0d41 	andeq	r0, sp, r1, asr #26
 184:	00000020 	andeq	r0, r0, r0, lsr #32
 188:	00000108 	andeq	r0, r0, r8, lsl #2
 18c:	08000442 	stmdaeq	r0, {r1, r6, sl}
 190:	00000026 	andeq	r0, r0, r6, lsr #32
 194:	87080e41 	strhi	r0, [r8, -r1, asr #28]
 198:	41018e02 	tstmi	r1, r2, lsl #28
 19c:	0d41180e 	stcleq	8, cr1, [r1, #-56]	; 0xffffffc8
 1a0:	080e4e07 	stmdaeq	lr, {r0, r1, r2, r9, sl, fp, lr}
 1a4:	000d0d41 	andeq	r0, sp, r1, asr #26
 1a8:	0000000c 	andeq	r0, r0, ip
 1ac:	ffffffff 			; <UNDEFINED> instruction: 0xffffffff
 1b0:	7c020001 	stcvc	0, cr0, [r2], {1}
 1b4:	000d0c0e 	andeq	r0, sp, lr, lsl #24
 1b8:	00000020 	andeq	r0, r0, r0, lsr #32
 1bc:	000001a8 	andeq	r0, r0, r8, lsr #3
 1c0:	08000468 	stmdaeq	r0, {r3, r5, r6, sl}
 1c4:	00000028 	andeq	r0, r0, r8, lsr #32
 1c8:	87080e41 	strhi	r0, [r8, -r1, asr #28]
 1cc:	41018e02 	tstmi	r1, r2, lsl #28
 1d0:	0d41100e 	stcleq	0, cr1, [r1, #-56]	; 0xffffffc8
 1d4:	080e4c07 	stmdaeq	lr, {r0, r1, r2, sl, fp, lr}
 1d8:	000d0d41 	andeq	r0, sp, r1, asr #26
 1dc:	0000000c 	andeq	r0, r0, ip
 1e0:	ffffffff 			; <UNDEFINED> instruction: 0xffffffff
 1e4:	7c020001 	stcvc	0, cr0, [r2], {1}
 1e8:	000d0c0e 	andeq	r0, sp, lr, lsl #24
 1ec:	00000020 	andeq	r0, r0, r0, lsr #32
 1f0:	000001dc 	ldrdeq	r0, [r0], -ip
 1f4:	08000490 	stmdaeq	r0, {r4, r7, sl}
 1f8:	0000003c 	andeq	r0, r0, ip, lsr r0
 1fc:	87080e41 	strhi	r0, [r8, -r1, asr #28]
 200:	41018e02 	tstmi	r1, r2, lsl #28
 204:	0d41100e 	stcleq	0, cr1, [r1, #-56]	; 0xffffffc8
 208:	080e5607 	stmdaeq	lr, {r0, r1, r2, r9, sl, ip, lr}
 20c:	000d0d41 	andeq	r0, sp, r1, asr #26
 210:	00000020 	andeq	r0, r0, r0, lsr #32
 214:	000001dc 	ldrdeq	r0, [r0], -ip
 218:	080004cc 	stmdaeq	r0, {r2, r3, r6, r7, sl}
 21c:	00000038 	andeq	r0, r0, r8, lsr r0
 220:	87080e41 	strhi	r0, [r8, -r1, asr #28]
 224:	41018e02 	tstmi	r1, r2, lsl #28
 228:	0d41100e 	stcleq	0, cr1, [r1, #-56]	; 0xffffffc8
 22c:	080e5507 	stmdaeq	lr, {r0, r1, r2, r8, sl, ip, lr}
 230:	000d0d41 	andeq	r0, sp, r1, asr #26
 234:	00000020 	andeq	r0, r0, r0, lsr #32
 238:	000001dc 	ldrdeq	r0, [r0], -ip
 23c:	08000504 	stmdaeq	r0, {r2, r8, sl}
 240:	00000038 	andeq	r0, r0, r8, lsr r0
 244:	87080e41 	strhi	r0, [r8, -r1, asr #28]
 248:	41018e02 	tstmi	r1, r2, lsl #28
 24c:	0d41100e 	stcleq	0, cr1, [r1, #-56]	; 0xffffffc8
 250:	080e5507 	stmdaeq	lr, {r0, r1, r2, r8, sl, ip, lr}
 254:	000d0d41 	andeq	r0, sp, r1, asr #26
 258:	00000020 	andeq	r0, r0, r0, lsr #32
 25c:	000001dc 	ldrdeq	r0, [r0], -ip
 260:	0800053c 	stmdaeq	r0, {r2, r3, r4, r5, r8, sl}
 264:	00000038 	andeq	r0, r0, r8, lsr r0
 268:	87080e41 	strhi	r0, [r8, -r1, asr #28]
 26c:	41018e02 	tstmi	r1, r2, lsl #28
 270:	0d41100e 	stcleq	0, cr1, [r1, #-56]	; 0xffffffc8
 274:	080e5507 	stmdaeq	lr, {r0, r1, r2, r8, sl, ip, lr}
 278:	000d0d41 	andeq	r0, sp, r1, asr #26
 27c:	00000020 	andeq	r0, r0, r0, lsr #32
 280:	000001dc 	ldrdeq	r0, [r0], -ip
 284:	08000574 	stmdaeq	r0, {r2, r4, r5, r6, r8, sl}
 288:	00000038 	andeq	r0, r0, r8, lsr r0
 28c:	87080e41 	strhi	r0, [r8, -r1, asr #28]
 290:	41018e02 	tstmi	r1, r2, lsl #28
 294:	0d41100e 	stcleq	0, cr1, [r1, #-56]	; 0xffffffc8
 298:	080e5507 	stmdaeq	lr, {r0, r1, r2, r8, sl, ip, lr}
 29c:	000d0d41 	andeq	r0, sp, r1, asr #26
 2a0:	00000020 	andeq	r0, r0, r0, lsr #32
 2a4:	000001dc 	ldrdeq	r0, [r0], -ip
 2a8:	080005ac 	stmdaeq	r0, {r2, r3, r5, r7, r8, sl}
 2ac:	00000028 	andeq	r0, r0, r8, lsr #32
 2b0:	87080e41 	strhi	r0, [r8, -r1, asr #28]
 2b4:	41018e02 	tstmi	r1, r2, lsl #28
 2b8:	0d41100e 	stcleq	0, cr1, [r1, #-56]	; 0xffffffc8
 2bc:	080e4d07 	stmdaeq	lr, {r0, r1, r2, r8, sl, fp, lr}
 2c0:	000d0d41 	andeq	r0, sp, r1, asr #26
 2c4:	00000020 	andeq	r0, r0, r0, lsr #32
 2c8:	000001dc 	ldrdeq	r0, [r0], -ip
 2cc:	080005d4 	stmdaeq	r0, {r2, r4, r6, r7, r8, sl}
 2d0:	00000028 	andeq	r0, r0, r8, lsr #32
 2d4:	87080e41 	strhi	r0, [r8, -r1, asr #28]
 2d8:	41018e02 	tstmi	r1, r2, lsl #28
 2dc:	0d41100e 	stcleq	0, cr1, [r1, #-56]	; 0xffffffc8
 2e0:	080e4d07 	stmdaeq	lr, {r0, r1, r2, r8, sl, fp, lr}
 2e4:	000d0d41 	andeq	r0, sp, r1, asr #26
 2e8:	00000020 	andeq	r0, r0, r0, lsr #32
 2ec:	000001dc 	ldrdeq	r0, [r0], -ip
 2f0:	080005fc 	stmdaeq	r0, {r2, r3, r4, r5, r6, r7, r8, sl}
 2f4:	00000028 	andeq	r0, r0, r8, lsr #32
 2f8:	87080e41 	strhi	r0, [r8, -r1, asr #28]
 2fc:	41018e02 	tstmi	r1, r2, lsl #28
 300:	0d41100e 	stcleq	0, cr1, [r1, #-56]	; 0xffffffc8
 304:	080e4d07 	stmdaeq	lr, {r0, r1, r2, r8, sl, fp, lr}
 308:	000d0d41 	andeq	r0, sp, r1, asr #26
 30c:	00000020 	andeq	r0, r0, r0, lsr #32
 310:	000001dc 	ldrdeq	r0, [r0], -ip
 314:	08000624 	stmdaeq	r0, {r2, r5, r9, sl}
 318:	00000028 	andeq	r0, r0, r8, lsr #32
 31c:	87080e41 	strhi	r0, [r8, -r1, asr #28]
 320:	41018e02 	tstmi	r1, r2, lsl #28
 324:	0d41100e 	stcleq	0, cr1, [r1, #-56]	; 0xffffffc8
 328:	080e4c07 	stmdaeq	lr, {r0, r1, r2, sl, fp, lr}
 32c:	000d0d41 	andeq	r0, sp, r1, asr #26
 330:	00000020 	andeq	r0, r0, r0, lsr #32
 334:	000001dc 	ldrdeq	r0, [r0], -ip
 338:	0800064c 	stmdaeq	r0, {r2, r3, r6, r9, sl}
 33c:	00000028 	andeq	r0, r0, r8, lsr #32
 340:	87080e41 	strhi	r0, [r8, -r1, asr #28]
 344:	41018e02 	tstmi	r1, r2, lsl #28
 348:	0d41100e 	stcleq	0, cr1, [r1, #-56]	; 0xffffffc8
 34c:	080e4d07 	stmdaeq	lr, {r0, r1, r2, r8, sl, fp, lr}
 350:	000d0d41 	andeq	r0, sp, r1, asr #26
 354:	00000020 	andeq	r0, r0, r0, lsr #32
 358:	000001dc 	ldrdeq	r0, [r0], -ip
 35c:	08000674 	stmdaeq	r0, {r2, r4, r5, r6, r9, sl}
 360:	00000028 	andeq	r0, r0, r8, lsr #32
 364:	87080e41 	strhi	r0, [r8, -r1, asr #28]
 368:	41018e02 	tstmi	r1, r2, lsl #28
 36c:	0d41100e 	stcleq	0, cr1, [r1, #-56]	; 0xffffffc8
 370:	080e4d07 	stmdaeq	lr, {r0, r1, r2, r8, sl, fp, lr}
 374:	000d0d41 	andeq	r0, sp, r1, asr #26
 378:	00000020 	andeq	r0, r0, r0, lsr #32
 37c:	000001dc 	ldrdeq	r0, [r0], -ip
 380:	0800069c 	stmdaeq	r0, {r2, r3, r4, r7, r9, sl}
 384:	00000028 	andeq	r0, r0, r8, lsr #32
 388:	87080e41 	strhi	r0, [r8, -r1, asr #28]
 38c:	41018e02 	tstmi	r1, r2, lsl #28
 390:	0d41100e 	stcleq	0, cr1, [r1, #-56]	; 0xffffffc8
 394:	080e4d07 	stmdaeq	lr, {r0, r1, r2, r8, sl, fp, lr}
 398:	000d0d41 	andeq	r0, sp, r1, asr #26
 39c:	00000020 	andeq	r0, r0, r0, lsr #32
 3a0:	000001dc 	ldrdeq	r0, [r0], -ip
 3a4:	080006c4 	stmdaeq	r0, {r2, r6, r7, r9, sl}
 3a8:	00000028 	andeq	r0, r0, r8, lsr #32
 3ac:	87080e41 	strhi	r0, [r8, -r1, asr #28]
 3b0:	41018e02 	tstmi	r1, r2, lsl #28
 3b4:	0d41100e 	stcleq	0, cr1, [r1, #-56]	; 0xffffffc8
 3b8:	080e4d07 	stmdaeq	lr, {r0, r1, r2, r8, sl, fp, lr}
 3bc:	000d0d41 	andeq	r0, sp, r1, asr #26
 3c0:	00000020 	andeq	r0, r0, r0, lsr #32
 3c4:	000001dc 	ldrdeq	r0, [r0], -ip
 3c8:	080006ec 	stmdaeq	r0, {r2, r3, r5, r6, r7, r9, sl}
 3cc:	00000028 	andeq	r0, r0, r8, lsr #32
 3d0:	87080e41 	strhi	r0, [r8, -r1, asr #28]
 3d4:	41018e02 	tstmi	r1, r2, lsl #28
 3d8:	0d41100e 	stcleq	0, cr1, [r1, #-56]	; 0xffffffc8
 3dc:	080e4c07 	stmdaeq	lr, {r0, r1, r2, sl, fp, lr}
 3e0:	000d0d41 	andeq	r0, sp, r1, asr #26
 3e4:	00000020 	andeq	r0, r0, r0, lsr #32
 3e8:	000001dc 	ldrdeq	r0, [r0], -ip
 3ec:	08000714 	stmdaeq	r0, {r2, r4, r8, r9, sl}
 3f0:	0000002c 	andeq	r0, r0, ip, lsr #32
 3f4:	87080e41 	strhi	r0, [r8, -r1, asr #28]
 3f8:	41018e02 	tstmi	r1, r2, lsl #28
 3fc:	0d41100e 	stcleq	0, cr1, [r1, #-56]	; 0xffffffc8
 400:	080e4e07 	stmdaeq	lr, {r0, r1, r2, r9, sl, fp, lr}
 404:	000d0d41 	andeq	r0, sp, r1, asr #26
 408:	0000000c 	andeq	r0, r0, ip
 40c:	ffffffff 			; <UNDEFINED> instruction: 0xffffffff
 410:	7c020001 	stcvc	0, cr0, [r2], {1}
 414:	000d0c0e 	andeq	r0, sp, lr, lsl #24
 418:	00000024 	andeq	r0, r0, r4, lsr #32
 41c:	00000408 	andeq	r0, r0, r8, lsl #8
 420:	08000740 	stmdaeq	r0, {r6, r8, r9, sl}
 424:	00000060 	andeq	r0, r0, r0, rrx
 428:	87040e41 	strhi	r0, [r4, -r1, asr #28]
 42c:	200e4101 	andcs	r4, lr, r1, lsl #2
 430:	6a070d41 	bvs	1c393c <isr_vectors-0x7e3c6c4>
 434:	0d41040e 	cfstrdeq	mvd0, [r1, #-56]	; 0xffffffc8
 438:	0ec7410d 	poleqs	f4, f7, #5.0
 43c:	00000000 	andeq	r0, r0, r0
 440:	0000000c 	andeq	r0, r0, ip
 444:	ffffffff 			; <UNDEFINED> instruction: 0xffffffff
 448:	7c020001 	stcvc	0, cr0, [r2], {1}
 44c:	000d0c0e 	andeq	r0, sp, lr, lsl #24
 450:	00000018 	andeq	r0, r0, r8, lsl r0
 454:	00000440 	andeq	r0, r0, r0, asr #8
 458:	080007a0 	stmdaeq	r0, {r5, r7, r8, r9, sl}
 45c:	00000040 	andeq	r0, r0, r0, asr #32
 460:	87080e41 	strhi	r0, [r8, -r1, asr #28]
 464:	41018e02 	tstmi	r1, r2, lsl #28
 468:	0000070d 	andeq	r0, r0, sp, lsl #14
 46c:	00000018 	andeq	r0, r0, r8, lsl r0
 470:	00000440 	andeq	r0, r0, r0, asr #8
 474:	080007e0 	stmdaeq	r0, {r5, r6, r7, r8, r9, sl}
 478:	00000064 	andeq	r0, r0, r4, rrx
 47c:	87080e41 	strhi	r0, [r8, -r1, asr #28]
 480:	41018e02 	tstmi	r1, r2, lsl #28
 484:	0000070d 	andeq	r0, r0, sp, lsl #14
 488:	0000000c 	andeq	r0, r0, ip
 48c:	ffffffff 			; <UNDEFINED> instruction: 0xffffffff
 490:	7c020001 	stcvc	0, cr0, [r2], {1}
 494:	000d0c0e 	andeq	r0, sp, lr, lsl #24
 498:	00000014 	andeq	r0, r0, r4, lsl r0
 49c:	00000488 	andeq	r0, r0, r8, lsl #9
 4a0:	08000844 	stmdaeq	r0, {r2, r6, fp}
 4a4:	00000006 	andeq	r0, r0, r6
 4a8:	87040e41 	strhi	r0, [r4, -r1, asr #28]
 4ac:	070d4101 	streq	r4, [sp, -r1, lsl #2]
 4b0:	00000020 	andeq	r0, r0, r0, lsr #32
 4b4:	00000488 	andeq	r0, r0, r8, lsl #9
 4b8:	0800084a 	stmdaeq	r0, {r1, r3, r6, fp}
 4bc:	0000008a 	andeq	r0, r0, sl, lsl #1
 4c0:	87080e41 	strhi	r0, [r8, -r1, asr #28]
 4c4:	41018e02 	tstmi	r1, r2, lsl #28
 4c8:	0d41200e 	stcleq	0, cr2, [r1, #-56]	; 0xffffffc8
 4cc:	080e7507 	stmdaeq	lr, {r0, r1, r2, r8, sl, ip, sp, lr}
 4d0:	000d0d41 	andeq	r0, sp, r1, asr #26
